
memory_riscv:     file format elf64-littleriscv


Disassembly of section .init:

0000000008000000 <_start>:
 8000000:	00018197          	auipc	gp,0x18
 8000004:	0e018193          	addi	gp,gp,224 # 80180e0 <__global_pointer$>
 8000008:	08000117          	auipc	sp,0x8000
 800000c:	ff810113          	addi	sp,sp,-8 # 10000000 <__stack_top>
 8000010:	00010433          	add	s0,sp,zero
 8000014:	3c80006f          	j	80003dc <main>

Disassembly of section .text:

0000000008000018 <_ZSt17__throw_bad_allocv>:
 8000018:	1141                	addi	sp,sp,-16
 800001a:	4521                	li	a0,8
 800001c:	e406                	sd	ra,8(sp)
 800001e:	3ba060ef          	jal	80063d8 <__cxa_allocate_exception>
 8000022:	00013797          	auipc	a5,0x13
 8000026:	6de78793          	addi	a5,a5,1758 # 8013700 <_ZTVSt9bad_alloc+0x10>
 800002a:	e11c                	sd	a5,0(a0)
 800002c:	00002617          	auipc	a2,0x2
 8000030:	dd660613          	addi	a2,a2,-554 # 8001e02 <_ZNSt9bad_allocD1Ev>
 8000034:	00013597          	auipc	a1,0x13
 8000038:	6a458593          	addi	a1,a1,1700 # 80136d8 <_ZTISt9bad_alloc>
 800003c:	1eb010ef          	jal	8001a26 <__cxa_throw>

0000000008000040 <_ZSt28__throw_bad_array_new_lengthv>:
 8000040:	1141                	addi	sp,sp,-16
 8000042:	4521                	li	a0,8
 8000044:	e406                	sd	ra,8(sp)
 8000046:	392060ef          	jal	80063d8 <__cxa_allocate_exception>
 800004a:	00013797          	auipc	a5,0x13
 800004e:	71678793          	addi	a5,a5,1814 # 8013760 <_ZTVSt20bad_array_new_length+0x10>
 8000052:	e11c                	sd	a5,0(a0)
 8000054:	00002617          	auipc	a2,0x2
 8000058:	de060613          	addi	a2,a2,-544 # 8001e34 <_ZNSt20bad_array_new_lengthD1Ev>
 800005c:	00013597          	auipc	a1,0x13
 8000060:	6dc58593          	addi	a1,a1,1756 # 8013738 <_ZTISt20bad_array_new_length>
 8000064:	1c3010ef          	jal	8001a26 <__cxa_throw>

0000000008000068 <_ZSt19__throw_logic_errorPKc>:
 8000068:	7179                	addi	sp,sp,-48
 800006a:	e42a                	sd	a0,8(sp)
 800006c:	4541                	li	a0,16
 800006e:	f022                	sd	s0,32(sp)
 8000070:	f406                	sd	ra,40(sp)
 8000072:	ec26                	sd	s1,24(sp)
 8000074:	364060ef          	jal	80063d8 <__cxa_allocate_exception>
 8000078:	65a2                	ld	a1,8(sp)
 800007a:	842a                	mv	s0,a0
 800007c:	6b2060ef          	jal	800672e <_ZNSt11logic_errorC1EPKc>
 8000080:	00006617          	auipc	a2,0x6
 8000084:	62660613          	addi	a2,a2,1574 # 80066a6 <_ZNSt11logic_errorD1Ev>
 8000088:	00015597          	auipc	a1,0x15
 800008c:	96858593          	addi	a1,a1,-1688 # 80149f0 <_ZTISt11logic_error>
 8000090:	8522                	mv	a0,s0
 8000092:	195010ef          	jal	8001a26 <__cxa_throw>
 8000096:	84aa                	mv	s1,a0
 8000098:	8522                	mv	a0,s0
 800009a:	378060ef          	jal	8006412 <__cxa_free_exception>
 800009e:	8526                	mv	a0,s1
 80000a0:	2e7080ef          	jal	8008b86 <_Unwind_Resume>

00000000080000a4 <_ZSt20__throw_length_errorPKc>:
 80000a4:	7179                	addi	sp,sp,-48
 80000a6:	e42a                	sd	a0,8(sp)
 80000a8:	4541                	li	a0,16
 80000aa:	f022                	sd	s0,32(sp)
 80000ac:	f406                	sd	ra,40(sp)
 80000ae:	ec26                	sd	s1,24(sp)
 80000b0:	328060ef          	jal	80063d8 <__cxa_allocate_exception>
 80000b4:	65a2                	ld	a1,8(sp)
 80000b6:	842a                	mv	s0,a0
 80000b8:	6ac060ef          	jal	8006764 <_ZNSt12length_errorC1EPKc>
 80000bc:	00006617          	auipc	a2,0x6
 80000c0:	60e60613          	addi	a2,a2,1550 # 80066ca <_ZNSt12length_errorD1Ev>
 80000c4:	00015597          	auipc	a1,0x15
 80000c8:	95c58593          	addi	a1,a1,-1700 # 8014a20 <_ZTISt12length_error>
 80000cc:	8522                	mv	a0,s0
 80000ce:	159010ef          	jal	8001a26 <__cxa_throw>
 80000d2:	84aa                	mv	s1,a0
 80000d4:	8522                	mv	a0,s0
 80000d6:	33c060ef          	jal	8006412 <__cxa_free_exception>
 80000da:	8526                	mv	a0,s1
 80000dc:	2ab080ef          	jal	8008b86 <_Unwind_Resume>

00000000080000e0 <_GLOBAL__sub_I__ZN9__gnu_cxx9__freeresEv>:
 80000e0:	7119                	addi	sp,sp,-128
 80000e2:	00013517          	auipc	a0,0x13
 80000e6:	38e50513          	addi	a0,a0,910 # 8013470 <__clzdi2+0xe46>
 80000ea:	f8a2                	sd	s0,112(sp)
 80000ec:	ecce                	sd	s3,88(sp)
 80000ee:	e8d2                	sd	s4,80(sp)
 80000f0:	4801bc23          	sd	zero,1176(gp) # 8018578 <_ZN12_GLOBAL__N_114emergency_poolE+0x8>
 80000f4:	4a01b023          	sd	zero,1184(gp) # 8018580 <_ZN12_GLOBAL__N_114emergency_poolE+0x10>
 80000f8:	4a01b423          	sd	zero,1192(gp) # 8018588 <_ZN12_GLOBAL__N_114emergency_poolE+0x18>
 80000fc:	fc86                	sd	ra,120(sp)
 80000fe:	f4a6                	sd	s1,104(sp)
 8000100:	f0ca                	sd	s2,96(sp)
 8000102:	70b090ef          	jal	800a00c <getenv>
 8000106:	47bd                	li	a5,15
 8000108:	e83e                	sd	a5,16(sp)
 800010a:	00013797          	auipc	a5,0x13
 800010e:	37e78793          	addi	a5,a5,894 # 8013488 <__clzdi2+0xe5e>
 8000112:	ec3e                	sd	a5,24(sp)
 8000114:	47a1                	li	a5,8
 8000116:	f03e                	sd	a5,32(sp)
 8000118:	00013797          	auipc	a5,0x13
 800011c:	38078793          	addi	a5,a5,896 # 8013498 <__clzdi2+0xe6e>
 8000120:	f43e                	sd	a5,40(sp)
 8000122:	47a5                	li	a5,9
 8000124:	fc3e                	sd	a5,56(sp)
 8000126:	00013797          	auipc	a5,0x13
 800012a:	38278793          	addi	a5,a5,898 # 80134a8 <__clzdi2+0xe7e>
 800012e:	e0be                	sd	a5,64(sp)
 8000130:	4791                	li	a5,4
 8000132:	842a                	mv	s0,a0
 8000134:	d802                	sw	zero,48(sp)
 8000136:	c4be                	sw	a5,72(sp)
 8000138:	03a00993          	li	s3,58
 800013c:	02e00a13          	li	s4,46
 8000140:	e421                	bnez	s0,8000188 <_GLOBAL__sub_I__ZN9__gnu_cxx9__freeresEv+0xa8>
 8000142:	4726                	lw	a4,72(sp)
 8000144:	04000693          	li	a3,64
 8000148:	0007079b          	sext.w	a5,a4
 800014c:	00e6d463          	bge	a3,a4,8000154 <_GLOBAL__sub_I__ZN9__gnu_cxx9__freeresEv+0x74>
 8000150:	04000793          	li	a5,64
 8000154:	5442                	lw	s0,48(sp)
 8000156:	e011                	bnez	s0,800015a <_GLOBAL__sub_I__ZN9__gnu_cxx9__freeresEv+0x7a>
 8000158:	4419                	li	s0,6
 800015a:	0479                	addi	s0,s0,30
 800015c:	02f40433          	mul	s0,s0,a5
 8000160:	49018493          	addi	s1,gp,1168 # 8018570 <_ZN12_GLOBAL__N_114emergency_poolE>
 8000164:	040e                	slli	s0,s0,0x3
 8000166:	ec80                	sd	s0,24(s1)
 8000168:	c801                	beqz	s0,8000178 <_GLOBAL__sub_I__ZN9__gnu_cxx9__freeresEv+0x98>
 800016a:	8522                	mv	a0,s0
 800016c:	773090ef          	jal	800a0de <malloc>
 8000170:	e888                	sd	a0,16(s1)
 8000172:	e155                	bnez	a0,8000216 <_GLOBAL__sub_I__ZN9__gnu_cxx9__freeresEv+0x136>
 8000174:	4a01b423          	sd	zero,1192(gp) # 8018588 <_ZN12_GLOBAL__N_114emergency_poolE+0x18>
 8000178:	70e6                	ld	ra,120(sp)
 800017a:	7446                	ld	s0,112(sp)
 800017c:	74a6                	ld	s1,104(sp)
 800017e:	7906                	ld	s2,96(sp)
 8000180:	69e6                	ld	s3,88(sp)
 8000182:	6a46                	ld	s4,80(sp)
 8000184:	6109                	addi	sp,sp,128
 8000186:	8082                	ret
 8000188:	00044783          	lbu	a5,0(s0)
 800018c:	01379363          	bne	a5,s3,8000192 <_GLOBAL__sub_I__ZN9__gnu_cxx9__freeresEv+0xb2>
 8000190:	0405                	addi	s0,s0,1
 8000192:	473d                	li	a4,15
 8000194:	86a2                	mv	a3,s0
 8000196:	463d                	li	a2,15
 8000198:	4581                	li	a1,0
 800019a:	0808                	addi	a0,sp,16
 800019c:	294060ef          	jal	8006430 <_ZNKSt17basic_string_viewIcSt11char_traitsIcEE7compareEmmPKcm>
 80001a0:	ed0d                	bnez	a0,80001da <_GLOBAL__sub_I__ZN9__gnu_cxx9__freeresEv+0xfa>
 80001a2:	00f44783          	lbu	a5,15(s0)
 80001a6:	03479a63          	bne	a5,s4,80001da <_GLOBAL__sub_I__ZN9__gnu_cxx9__freeresEv+0xfa>
 80001aa:	0441                	addi	s0,s0,16
 80001ac:	1004                	addi	s1,sp,32
 80001ae:	0004b903          	ld	s2,0(s1)
 80001b2:	86a2                	mv	a3,s0
 80001b4:	4581                	li	a1,0
 80001b6:	874a                	mv	a4,s2
 80001b8:	864a                	mv	a2,s2
 80001ba:	8526                	mv	a0,s1
 80001bc:	274060ef          	jal	8006430 <_ZNKSt17basic_string_viewIcSt11char_traitsIcEE7compareEmmPKcm>
 80001c0:	e909                	bnez	a0,80001d2 <_GLOBAL__sub_I__ZN9__gnu_cxx9__freeresEv+0xf2>
 80001c2:	012407b3          	add	a5,s0,s2
 80001c6:	0007c703          	lbu	a4,0(a5)
 80001ca:	03d00793          	li	a5,61
 80001ce:	00f70d63          	beq	a4,a5,80001e8 <_GLOBAL__sub_I__ZN9__gnu_cxx9__freeresEv+0x108>
 80001d2:	04e1                	addi	s1,s1,24
 80001d4:	089c                	addi	a5,sp,80
 80001d6:	fcf49ce3          	bne	s1,a5,80001ae <_GLOBAL__sub_I__ZN9__gnu_cxx9__freeresEv+0xce>
 80001da:	8522                	mv	a0,s0
 80001dc:	03a00593          	li	a1,58
 80001e0:	2260b0ef          	jal	800b406 <strchr>
 80001e4:	842a                	mv	s0,a0
 80001e6:	bfa9                	j	8000140 <_GLOBAL__sub_I__ZN9__gnu_cxx9__freeresEv+0x60>
 80001e8:	00190513          	addi	a0,s2,1
 80001ec:	9522                	add	a0,a0,s0
 80001ee:	4601                	li	a2,0
 80001f0:	002c                	addi	a1,sp,8
 80001f2:	2910a0ef          	jal	800ac82 <strtoul>
 80001f6:	6422                	ld	s0,8(sp)
 80001f8:	03a00713          	li	a4,58
 80001fc:	00044783          	lbu	a5,0(s0)
 8000200:	00e78363          	beq	a5,a4,8000206 <_GLOBAL__sub_I__ZN9__gnu_cxx9__freeresEv+0x126>
 8000204:	fbf9                	bnez	a5,80001da <_GLOBAL__sub_I__ZN9__gnu_cxx9__freeresEv+0xfa>
 8000206:	800007b7          	lui	a5,0x80000
 800020a:	fff7c793          	not	a5,a5
 800020e:	fca7e6e3          	bltu	a5,a0,80001da <_GLOBAL__sub_I__ZN9__gnu_cxx9__freeresEv+0xfa>
 8000212:	c888                	sw	a0,16(s1)
 8000214:	b7d9                	j	80001da <_GLOBAL__sub_I__ZN9__gnu_cxx9__freeresEv+0xfa>
 8000216:	e488                	sd	a0,8(s1)
 8000218:	e100                	sd	s0,0(a0)
 800021a:	00053423          	sd	zero,8(a0)
 800021e:	bfa9                	j	8000178 <_GLOBAL__sub_I__ZN9__gnu_cxx9__freeresEv+0x98>

0000000008000220 <__do_global_dtors_aux>:
 8000220:	1141                	addi	sp,sp,-16
 8000222:	e022                	sd	s0,0(sp)
 8000224:	44018413          	addi	s0,gp,1088 # 8018520 <completed.1>
 8000228:	00044783          	lbu	a5,0(s0)
 800022c:	e406                	sd	ra,8(sp)
 800022e:	ef99                	bnez	a5,800024c <__do_global_dtors_aux+0x2c>
 8000230:	0000a797          	auipc	a5,0xa
 8000234:	ce478793          	addi	a5,a5,-796 # 8009f14 <__deregister_frame_info>
 8000238:	c799                	beqz	a5,8000246 <__do_global_dtors_aux+0x26>
 800023a:	00015517          	auipc	a0,0x15
 800023e:	28650513          	addi	a0,a0,646 # 80154c0 <__EH_FRAME_BEGIN__>
 8000242:	4d3090ef          	jal	8009f14 <__deregister_frame_info>
 8000246:	4785                	li	a5,1
 8000248:	00f40023          	sb	a5,0(s0)
 800024c:	60a2                	ld	ra,8(sp)
 800024e:	6402                	ld	s0,0(sp)
 8000250:	0141                	addi	sp,sp,16
 8000252:	8082                	ret

0000000008000254 <frame_dummy>:
 8000254:	0000a797          	auipc	a5,0xa
 8000258:	bea78793          	addi	a5,a5,-1046 # 8009e3e <__register_frame_info>
 800025c:	cb89                	beqz	a5,800026e <frame_dummy+0x1a>
 800025e:	44818593          	addi	a1,gp,1096 # 8018528 <object.0>
 8000262:	00015517          	auipc	a0,0x15
 8000266:	25e50513          	addi	a0,a0,606 # 80154c0 <__EH_FRAME_BEGIN__>
 800026a:	3d50906f          	j	8009e3e <__register_frame_info>
 800026e:	8082                	ret

0000000008000270 <_Z6primesi>:
 8000270:	7139                	addi	sp,sp,-64
 8000272:	fc22                	sd	s0,56(sp)
 8000274:	0080                	addi	s0,sp,64
 8000276:	87aa                	mv	a5,a0
 8000278:	fcf42623          	sw	a5,-52(s0)
 800027c:	4785                	li	a5,1
 800027e:	fcf42e23          	sw	a5,-36(s0)
 8000282:	4789                	li	a5,2
 8000284:	fef43423          	sd	a5,-24(s0)
 8000288:	a08d                	j	80002ea <_Z6primesi+0x7a>
 800028a:	4789                	li	a5,2
 800028c:	fef43023          	sd	a5,-32(s0)
 8000290:	a015                	j	80002b4 <_Z6primesi+0x44>
 8000292:	fe843703          	ld	a4,-24(s0)
 8000296:	fe043783          	ld	a5,-32(s0)
 800029a:	02f767b3          	rem	a5,a4,a5
 800029e:	e791                	bnez	a5,80002aa <_Z6primesi+0x3a>
 80002a0:	fe843783          	ld	a5,-24(s0)
 80002a4:	fef43023          	sd	a5,-32(s0)
 80002a8:	a00d                	j	80002ca <_Z6primesi+0x5a>
 80002aa:	fe043783          	ld	a5,-32(s0)
 80002ae:	0785                	addi	a5,a5,1
 80002b0:	fef43023          	sd	a5,-32(s0)
 80002b4:	fe843783          	ld	a5,-24(s0)
 80002b8:	03f7d713          	srli	a4,a5,0x3f
 80002bc:	97ba                	add	a5,a5,a4
 80002be:	8785                	srai	a5,a5,0x1
 80002c0:	873e                	mv	a4,a5
 80002c2:	fe043783          	ld	a5,-32(s0)
 80002c6:	fcf756e3          	bge	a4,a5,8000292 <_Z6primesi+0x22>
 80002ca:	fe043703          	ld	a4,-32(s0)
 80002ce:	fe843783          	ld	a5,-24(s0)
 80002d2:	00f70763          	beq	a4,a5,80002e0 <_Z6primesi+0x70>
 80002d6:	fdc42783          	lw	a5,-36(s0)
 80002da:	2785                	addiw	a5,a5,1
 80002dc:	fcf42e23          	sw	a5,-36(s0)
 80002e0:	fe843783          	ld	a5,-24(s0)
 80002e4:	0785                	addi	a5,a5,1
 80002e6:	fef43423          	sd	a5,-24(s0)
 80002ea:	fdc42783          	lw	a5,-36(s0)
 80002ee:	873e                	mv	a4,a5
 80002f0:	fcc42783          	lw	a5,-52(s0)
 80002f4:	2701                	sext.w	a4,a4
 80002f6:	2781                	sext.w	a5,a5
 80002f8:	f8e7d9e3          	bge	a5,a4,800028a <_Z6primesi+0x1a>
 80002fc:	fdc42783          	lw	a5,-36(s0)
 8000300:	853e                	mv	a0,a5
 8000302:	7462                	ld	s0,56(sp)
 8000304:	6121                	addi	sp,sp,64
 8000306:	8082                	ret

0000000008000308 <_Z6_fstatiP4stat>:
 8000308:	1101                	addi	sp,sp,-32
 800030a:	ec22                	sd	s0,24(sp)
 800030c:	1000                	addi	s0,sp,32
 800030e:	87aa                	mv	a5,a0
 8000310:	feb43023          	sd	a1,-32(s0)
 8000314:	fef42623          	sw	a5,-20(s0)
 8000318:	57fd                	li	a5,-1
 800031a:	853e                	mv	a0,a5
 800031c:	6462                	ld	s0,24(sp)
 800031e:	6105                	addi	sp,sp,32
 8000320:	8082                	ret

0000000008000322 <_Z5_sbrki>:
 8000322:	7179                	addi	sp,sp,-48
 8000324:	f422                	sd	s0,40(sp)
 8000326:	1800                	addi	s0,sp,48
 8000328:	87aa                	mv	a5,a0
 800032a:	fcf42e23          	sw	a5,-36(s0)
 800032e:	47818793          	addi	a5,gp,1144 # 8018558 <_ZZ5_sbrkiE4heap>
 8000332:	639c                	ld	a5,0(a5)
 8000334:	e791                	bnez	a5,8000340 <_Z5_sbrki+0x1e>
 8000336:	47818793          	addi	a5,gp,1144 # 8018558 <_ZZ5_sbrkiE4heap>
 800033a:	79018713          	addi	a4,gp,1936 # 8018870 <__BSS_END__>
 800033e:	e398                	sd	a4,0(a5)
 8000340:	47818793          	addi	a5,gp,1144 # 8018558 <_ZZ5_sbrkiE4heap>
 8000344:	639c                	ld	a5,0(a5)
 8000346:	fef43423          	sd	a5,-24(s0)
 800034a:	47818793          	addi	a5,gp,1144 # 8018558 <_ZZ5_sbrkiE4heap>
 800034e:	6398                	ld	a4,0(a5)
 8000350:	fdc42783          	lw	a5,-36(s0)
 8000354:	973e                	add	a4,a4,a5
 8000356:	47818793          	addi	a5,gp,1144 # 8018558 <_ZZ5_sbrkiE4heap>
 800035a:	e398                	sd	a4,0(a5)
 800035c:	fe843783          	ld	a5,-24(s0)
 8000360:	853e                	mv	a0,a5
 8000362:	7422                	ld	s0,40(sp)
 8000364:	6145                	addi	sp,sp,48
 8000366:	8082                	ret

0000000008000368 <_Z6_closei>:
 8000368:	1101                	addi	sp,sp,-32
 800036a:	ec22                	sd	s0,24(sp)
 800036c:	1000                	addi	s0,sp,32
 800036e:	87aa                	mv	a5,a0
 8000370:	fef42623          	sw	a5,-20(s0)
 8000374:	57fd                	li	a5,-1
 8000376:	853e                	mv	a0,a5
 8000378:	6462                	ld	s0,24(sp)
 800037a:	6105                	addi	sp,sp,32
 800037c:	8082                	ret

000000000800037e <_Z7_isattyi>:
 800037e:	1101                	addi	sp,sp,-32
 8000380:	ec22                	sd	s0,24(sp)
 8000382:	1000                	addi	s0,sp,32
 8000384:	87aa                	mv	a5,a0
 8000386:	fef42623          	sw	a5,-20(s0)
 800038a:	4785                	li	a5,1
 800038c:	853e                	mv	a0,a5
 800038e:	6462                	ld	s0,24(sp)
 8000390:	6105                	addi	sp,sp,32
 8000392:	8082                	ret

0000000008000394 <_Z5_readiPci>:
 8000394:	1101                	addi	sp,sp,-32
 8000396:	ec22                	sd	s0,24(sp)
 8000398:	1000                	addi	s0,sp,32
 800039a:	87aa                	mv	a5,a0
 800039c:	feb43023          	sd	a1,-32(s0)
 80003a0:	8732                	mv	a4,a2
 80003a2:	fef42623          	sw	a5,-20(s0)
 80003a6:	87ba                	mv	a5,a4
 80003a8:	fef42423          	sw	a5,-24(s0)
 80003ac:	57fd                	li	a5,-1
 80003ae:	853e                	mv	a0,a5
 80003b0:	6462                	ld	s0,24(sp)
 80003b2:	6105                	addi	sp,sp,32
 80003b4:	8082                	ret

00000000080003b6 <_Z6_lseekiii>:
 80003b6:	1101                	addi	sp,sp,-32
 80003b8:	ec22                	sd	s0,24(sp)
 80003ba:	1000                	addi	s0,sp,32
 80003bc:	87aa                	mv	a5,a0
 80003be:	86ae                	mv	a3,a1
 80003c0:	8732                	mv	a4,a2
 80003c2:	fef42623          	sw	a5,-20(s0)
 80003c6:	87b6                	mv	a5,a3
 80003c8:	fef42423          	sw	a5,-24(s0)
 80003cc:	87ba                	mv	a5,a4
 80003ce:	fef42223          	sw	a5,-28(s0)
 80003d2:	4781                	li	a5,0
 80003d4:	853e                	mv	a0,a5
 80003d6:	6462                	ld	s0,24(sp)
 80003d8:	6105                	addi	sp,sp,32
 80003da:	8082                	ret

00000000080003dc <main>:
 80003dc:	715d                	addi	sp,sp,-80
 80003de:	e486                	sd	ra,72(sp)
 80003e0:	e0a2                	sd	s0,64(sp)
 80003e2:	fc26                	sd	s1,56(sp)
 80003e4:	0880                	addi	s0,sp,80
 80003e6:	080407b7          	lui	a5,0x8040
 80003ea:	fcf43c23          	sd	a5,-40(s0)
 80003ee:	4795                	li	a5,5
 80003f0:	07fe                	slli	a5,a5,0x1f
 80003f2:	fcf43823          	sd	a5,-48(s0)
 80003f6:	fb840793          	addi	a5,s0,-72
 80003fa:	853e                	mv	a0,a5
 80003fc:	0a2000ef          	jal	800049e <_ZNSt6vectorIiSaIiEEC1Ev>
 8000400:	fb840793          	addi	a5,s0,-72
 8000404:	fd843583          	ld	a1,-40(s0)
 8000408:	853e                	mv	a0,a5
 800040a:	188000ef          	jal	8000592 <_ZNSt6vectorIiSaIiEE9push_backERKi>
 800040e:	fb840793          	addi	a5,s0,-72
 8000412:	853e                	mv	a0,a5
 8000414:	122000ef          	jal	8000536 <_ZNSt6vectorIiSaIiEED1Ev>
 8000418:	4781                	li	a5,0
 800041a:	a819                	j	8000430 <main+0x54>
 800041c:	84aa                	mv	s1,a0
 800041e:	fb840793          	addi	a5,s0,-72
 8000422:	853e                	mv	a0,a5
 8000424:	112000ef          	jal	8000536 <_ZNSt6vectorIiSaIiEED1Ev>
 8000428:	87a6                	mv	a5,s1
 800042a:	853e                	mv	a0,a5
 800042c:	75a080ef          	jal	8008b86 <_Unwind_Resume>
 8000430:	853e                	mv	a0,a5
 8000432:	60a6                	ld	ra,72(sp)
 8000434:	6406                	ld	s0,64(sp)
 8000436:	74e2                	ld	s1,56(sp)
 8000438:	6161                	addi	sp,sp,80
 800043a:	8082                	ret

000000000800043c <_ZnwmPv>:
 800043c:	1101                	addi	sp,sp,-32
 800043e:	ec22                	sd	s0,24(sp)
 8000440:	1000                	addi	s0,sp,32
 8000442:	fea43423          	sd	a0,-24(s0)
 8000446:	feb43023          	sd	a1,-32(s0)
 800044a:	fe043783          	ld	a5,-32(s0)
 800044e:	853e                	mv	a0,a5
 8000450:	6462                	ld	s0,24(sp)
 8000452:	6105                	addi	sp,sp,32
 8000454:	8082                	ret

0000000008000456 <_ZNSt12_Vector_baseIiSaIiEE12_Vector_implD1Ev>:
 8000456:	7179                	addi	sp,sp,-48
 8000458:	f406                	sd	ra,40(sp)
 800045a:	f022                	sd	s0,32(sp)
 800045c:	1800                	addi	s0,sp,48
 800045e:	fca43c23          	sd	a0,-40(s0)
 8000462:	fd843783          	ld	a5,-40(s0)
 8000466:	fef43423          	sd	a5,-24(s0)
 800046a:	fe843503          	ld	a0,-24(s0)
 800046e:	1fe000ef          	jal	800066c <_ZNSt15__new_allocatorIiED1Ev>
 8000472:	0001                	nop
 8000474:	0001                	nop
 8000476:	70a2                	ld	ra,40(sp)
 8000478:	7402                	ld	s0,32(sp)
 800047a:	6145                	addi	sp,sp,48
 800047c:	8082                	ret

000000000800047e <_ZNSt12_Vector_baseIiSaIiEEC1Ev>:
 800047e:	1101                	addi	sp,sp,-32
 8000480:	ec06                	sd	ra,24(sp)
 8000482:	e822                	sd	s0,16(sp)
 8000484:	1000                	addi	s0,sp,32
 8000486:	fea43423          	sd	a0,-24(s0)
 800048a:	fe843783          	ld	a5,-24(s0)
 800048e:	853e                	mv	a0,a5
 8000490:	02e000ef          	jal	80004be <_ZNSt12_Vector_baseIiSaIiEE12_Vector_implC1Ev>
 8000494:	0001                	nop
 8000496:	60e2                	ld	ra,24(sp)
 8000498:	6442                	ld	s0,16(sp)
 800049a:	6105                	addi	sp,sp,32
 800049c:	8082                	ret

000000000800049e <_ZNSt6vectorIiSaIiEEC1Ev>:
 800049e:	1101                	addi	sp,sp,-32
 80004a0:	ec06                	sd	ra,24(sp)
 80004a2:	e822                	sd	s0,16(sp)
 80004a4:	1000                	addi	s0,sp,32
 80004a6:	fea43423          	sd	a0,-24(s0)
 80004aa:	fe843783          	ld	a5,-24(s0)
 80004ae:	853e                	mv	a0,a5
 80004b0:	fcfff0ef          	jal	800047e <_ZNSt12_Vector_baseIiSaIiEEC1Ev>
 80004b4:	0001                	nop
 80004b6:	60e2                	ld	ra,24(sp)
 80004b8:	6442                	ld	s0,16(sp)
 80004ba:	6105                	addi	sp,sp,32
 80004bc:	8082                	ret

00000000080004be <_ZNSt12_Vector_baseIiSaIiEE12_Vector_implC1Ev>:
 80004be:	7179                	addi	sp,sp,-48
 80004c0:	f406                	sd	ra,40(sp)
 80004c2:	f022                	sd	s0,32(sp)
 80004c4:	1800                	addi	s0,sp,48
 80004c6:	fca43c23          	sd	a0,-40(s0)
 80004ca:	fd843783          	ld	a5,-40(s0)
 80004ce:	fef43423          	sd	a5,-24(s0)
 80004d2:	fe843783          	ld	a5,-24(s0)
 80004d6:	fef43023          	sd	a5,-32(s0)
 80004da:	0001                	nop
 80004dc:	0001                	nop
 80004de:	fd843783          	ld	a5,-40(s0)
 80004e2:	853e                	mv	a0,a5
 80004e4:	15e000ef          	jal	8000642 <_ZNSt12_Vector_baseIiSaIiEE17_Vector_impl_dataC1Ev>
 80004e8:	0001                	nop
 80004ea:	70a2                	ld	ra,40(sp)
 80004ec:	7402                	ld	s0,32(sp)
 80004ee:	6145                	addi	sp,sp,48
 80004f0:	8082                	ret

00000000080004f2 <_ZNSt12_Vector_baseIiSaIiEED1Ev>:
 80004f2:	1101                	addi	sp,sp,-32
 80004f4:	ec06                	sd	ra,24(sp)
 80004f6:	e822                	sd	s0,16(sp)
 80004f8:	1000                	addi	s0,sp,32
 80004fa:	fea43423          	sd	a0,-24(s0)
 80004fe:	fe843783          	ld	a5,-24(s0)
 8000502:	6394                	ld	a3,0(a5)
 8000504:	fe843783          	ld	a5,-24(s0)
 8000508:	6b98                	ld	a4,16(a5)
 800050a:	fe843783          	ld	a5,-24(s0)
 800050e:	639c                	ld	a5,0(a5)
 8000510:	40f707b3          	sub	a5,a4,a5
 8000514:	8789                	srai	a5,a5,0x2
 8000516:	863e                	mv	a2,a5
 8000518:	85b6                	mv	a1,a3
 800051a:	fe843503          	ld	a0,-24(s0)
 800051e:	160000ef          	jal	800067e <_ZNSt12_Vector_baseIiSaIiEE13_M_deallocateEPim>
 8000522:	fe843783          	ld	a5,-24(s0)
 8000526:	853e                	mv	a0,a5
 8000528:	f2fff0ef          	jal	8000456 <_ZNSt12_Vector_baseIiSaIiEE12_Vector_implD1Ev>
 800052c:	0001                	nop
 800052e:	60e2                	ld	ra,24(sp)
 8000530:	6442                	ld	s0,16(sp)
 8000532:	6105                	addi	sp,sp,32
 8000534:	8082                	ret

0000000008000536 <_ZNSt6vectorIiSaIiEED1Ev>:
 8000536:	715d                	addi	sp,sp,-80
 8000538:	e486                	sd	ra,72(sp)
 800053a:	e0a2                	sd	s0,64(sp)
 800053c:	fc26                	sd	s1,56(sp)
 800053e:	f84a                	sd	s2,48(sp)
 8000540:	0880                	addi	s0,sp,80
 8000542:	faa43c23          	sd	a0,-72(s0)
 8000546:	fb843783          	ld	a5,-72(s0)
 800054a:	0007b903          	ld	s2,0(a5) # 8040000 <__BSS_END__+0x27790>
 800054e:	fb843783          	ld	a5,-72(s0)
 8000552:	6784                	ld	s1,8(a5)
 8000554:	fb843783          	ld	a5,-72(s0)
 8000558:	853e                	mv	a0,a5
 800055a:	172000ef          	jal	80006cc <_ZNSt12_Vector_baseIiSaIiEE19_M_get_Tp_allocatorEv>
 800055e:	87aa                	mv	a5,a0
 8000560:	fd243c23          	sd	s2,-40(s0)
 8000564:	fc943823          	sd	s1,-48(s0)
 8000568:	fcf43423          	sd	a5,-56(s0)
 800056c:	fd043583          	ld	a1,-48(s0)
 8000570:	fd843503          	ld	a0,-40(s0)
 8000574:	4b0000ef          	jal	8000a24 <_ZSt8_DestroyIPiEvT_S1_>
 8000578:	0001                	nop
 800057a:	fb843783          	ld	a5,-72(s0)
 800057e:	853e                	mv	a0,a5
 8000580:	f73ff0ef          	jal	80004f2 <_ZNSt12_Vector_baseIiSaIiEED1Ev>
 8000584:	0001                	nop
 8000586:	60a6                	ld	ra,72(sp)
 8000588:	6406                	ld	s0,64(sp)
 800058a:	74e2                	ld	s1,56(sp)
 800058c:	7942                	ld	s2,48(sp)
 800058e:	6161                	addi	sp,sp,80
 8000590:	8082                	ret

0000000008000592 <_ZNSt6vectorIiSaIiEE9push_backERKi>:
 8000592:	711d                	addi	sp,sp,-96
 8000594:	ec86                	sd	ra,88(sp)
 8000596:	e8a2                	sd	s0,80(sp)
 8000598:	e4a6                	sd	s1,72(sp)
 800059a:	1080                	addi	s0,sp,96
 800059c:	faa43423          	sd	a0,-88(s0)
 80005a0:	fab43023          	sd	a1,-96(s0)
 80005a4:	fa843783          	ld	a5,-88(s0)
 80005a8:	6798                	ld	a4,8(a5)
 80005aa:	fa843783          	ld	a5,-88(s0)
 80005ae:	6b9c                	ld	a5,16(a5)
 80005b0:	06f70763          	beq	a4,a5,800061e <_ZNSt6vectorIiSaIiEE9push_backERKi+0x8c>
 80005b4:	fa843703          	ld	a4,-88(s0)
 80005b8:	fa843783          	ld	a5,-88(s0)
 80005bc:	679c                	ld	a5,8(a5)
 80005be:	fce43c23          	sd	a4,-40(s0)
 80005c2:	fcf43823          	sd	a5,-48(s0)
 80005c6:	fa043783          	ld	a5,-96(s0)
 80005ca:	fcf43423          	sd	a5,-56(s0)
 80005ce:	fc843503          	ld	a0,-56(s0)
 80005d2:	478000ef          	jal	8000a4a <_ZSt7forwardIRKiEOT_RNSt16remove_referenceIS2_E4typeE>
 80005d6:	872a                	mv	a4,a0
 80005d8:	fd843783          	ld	a5,-40(s0)
 80005dc:	fcf43023          	sd	a5,-64(s0)
 80005e0:	fd043783          	ld	a5,-48(s0)
 80005e4:	faf43c23          	sd	a5,-72(s0)
 80005e8:	fae43823          	sd	a4,-80(s0)
 80005ec:	fb843783          	ld	a5,-72(s0)
 80005f0:	85be                	mv	a1,a5
 80005f2:	4511                	li	a0,4
 80005f4:	e49ff0ef          	jal	800043c <_ZnwmPv>
 80005f8:	84aa                	mv	s1,a0
 80005fa:	fb043503          	ld	a0,-80(s0)
 80005fe:	44c000ef          	jal	8000a4a <_ZSt7forwardIRKiEOT_RNSt16remove_referenceIS2_E4typeE>
 8000602:	87aa                	mv	a5,a0
 8000604:	439c                	lw	a5,0(a5)
 8000606:	c09c                	sw	a5,0(s1)
 8000608:	0001                	nop
 800060a:	0001                	nop
 800060c:	fa843783          	ld	a5,-88(s0)
 8000610:	679c                	ld	a5,8(a5)
 8000612:	00478713          	addi	a4,a5,4
 8000616:	fa843783          	ld	a5,-88(s0)
 800061a:	e798                	sd	a4,8(a5)
 800061c:	a829                	j	8000636 <_ZNSt6vectorIiSaIiEE9push_backERKi+0xa4>
 800061e:	fa843503          	ld	a0,-88(s0)
 8000622:	0c0000ef          	jal	80006e2 <_ZNSt6vectorIiSaIiEE3endEv>
 8000626:	87aa                	mv	a5,a0
 8000628:	fa043603          	ld	a2,-96(s0)
 800062c:	85be                	mv	a1,a5
 800062e:	fa843503          	ld	a0,-88(s0)
 8000632:	10c000ef          	jal	800073e <_ZNSt6vectorIiSaIiEE17_M_realloc_insertIJRKiEEEvN9__gnu_cxx17__normal_iteratorIPiS1_EEDpOT_>
 8000636:	0001                	nop
 8000638:	60e6                	ld	ra,88(sp)
 800063a:	6446                	ld	s0,80(sp)
 800063c:	64a6                	ld	s1,72(sp)
 800063e:	6125                	addi	sp,sp,96
 8000640:	8082                	ret

0000000008000642 <_ZNSt12_Vector_baseIiSaIiEE17_Vector_impl_dataC1Ev>:
 8000642:	1101                	addi	sp,sp,-32
 8000644:	ec22                	sd	s0,24(sp)
 8000646:	1000                	addi	s0,sp,32
 8000648:	fea43423          	sd	a0,-24(s0)
 800064c:	fe843783          	ld	a5,-24(s0)
 8000650:	0007b023          	sd	zero,0(a5)
 8000654:	fe843783          	ld	a5,-24(s0)
 8000658:	0007b423          	sd	zero,8(a5)
 800065c:	fe843783          	ld	a5,-24(s0)
 8000660:	0007b823          	sd	zero,16(a5)
 8000664:	0001                	nop
 8000666:	6462                	ld	s0,24(sp)
 8000668:	6105                	addi	sp,sp,32
 800066a:	8082                	ret

000000000800066c <_ZNSt15__new_allocatorIiED1Ev>:
 800066c:	1101                	addi	sp,sp,-32
 800066e:	ec22                	sd	s0,24(sp)
 8000670:	1000                	addi	s0,sp,32
 8000672:	fea43423          	sd	a0,-24(s0)
 8000676:	0001                	nop
 8000678:	6462                	ld	s0,24(sp)
 800067a:	6105                	addi	sp,sp,32
 800067c:	8082                	ret

000000000800067e <_ZNSt12_Vector_baseIiSaIiEE13_M_deallocateEPim>:
 800067e:	715d                	addi	sp,sp,-80
 8000680:	e486                	sd	ra,72(sp)
 8000682:	e0a2                	sd	s0,64(sp)
 8000684:	0880                	addi	s0,sp,80
 8000686:	fca43423          	sd	a0,-56(s0)
 800068a:	fcb43023          	sd	a1,-64(s0)
 800068e:	fac43c23          	sd	a2,-72(s0)
 8000692:	fc043783          	ld	a5,-64(s0)
 8000696:	c795                	beqz	a5,80006c2 <_ZNSt12_Vector_baseIiSaIiEE13_M_deallocateEPim+0x44>
 8000698:	fc843783          	ld	a5,-56(s0)
 800069c:	fef43423          	sd	a5,-24(s0)
 80006a0:	fc043783          	ld	a5,-64(s0)
 80006a4:	fef43023          	sd	a5,-32(s0)
 80006a8:	fb843783          	ld	a5,-72(s0)
 80006ac:	fcf43c23          	sd	a5,-40(s0)
 80006b0:	fd843603          	ld	a2,-40(s0)
 80006b4:	fe043583          	ld	a1,-32(s0)
 80006b8:	fe843503          	ld	a0,-24(s0)
 80006bc:	5c4000ef          	jal	8000c80 <_ZNSt15__new_allocatorIiE10deallocateEPim>
 80006c0:	0001                	nop
 80006c2:	0001                	nop
 80006c4:	60a6                	ld	ra,72(sp)
 80006c6:	6406                	ld	s0,64(sp)
 80006c8:	6161                	addi	sp,sp,80
 80006ca:	8082                	ret

00000000080006cc <_ZNSt12_Vector_baseIiSaIiEE19_M_get_Tp_allocatorEv>:
 80006cc:	1101                	addi	sp,sp,-32
 80006ce:	ec22                	sd	s0,24(sp)
 80006d0:	1000                	addi	s0,sp,32
 80006d2:	fea43423          	sd	a0,-24(s0)
 80006d6:	fe843783          	ld	a5,-24(s0)
 80006da:	853e                	mv	a0,a5
 80006dc:	6462                	ld	s0,24(sp)
 80006de:	6105                	addi	sp,sp,32
 80006e0:	8082                	ret

00000000080006e2 <_ZNSt6vectorIiSaIiEE3endEv>:
 80006e2:	7179                	addi	sp,sp,-48
 80006e4:	f406                	sd	ra,40(sp)
 80006e6:	f022                	sd	s0,32(sp)
 80006e8:	1800                	addi	s0,sp,48
 80006ea:	fca43c23          	sd	a0,-40(s0)
 80006ee:	fd843783          	ld	a5,-40(s0)
 80006f2:	00878713          	addi	a4,a5,8
 80006f6:	fe840793          	addi	a5,s0,-24
 80006fa:	85ba                	mv	a1,a4
 80006fc:	853e                	mv	a0,a5
 80006fe:	362000ef          	jal	8000a60 <_ZN9__gnu_cxx17__normal_iteratorIPiSt6vectorIiSaIiEEEC1ERKS1_>
 8000702:	fe843783          	ld	a5,-24(s0)
 8000706:	853e                	mv	a0,a5
 8000708:	70a2                	ld	ra,40(sp)
 800070a:	7402                	ld	s0,32(sp)
 800070c:	6145                	addi	sp,sp,48
 800070e:	8082                	ret

0000000008000710 <_ZNSt6vectorIiSaIiEE15_S_use_relocateEv>:
 8000710:	1101                	addi	sp,sp,-32
 8000712:	ec06                	sd	ra,24(sp)
 8000714:	e822                	sd	s0,16(sp)
 8000716:	1000                	addi	s0,sp,32
 8000718:	853e                	mv	a0,a5
 800071a:	010000ef          	jal	800072a <_ZNSt6vectorIiSaIiEE19_S_nothrow_relocateESt17integral_constantIbLb1EE>
 800071e:	87aa                	mv	a5,a0
 8000720:	853e                	mv	a0,a5
 8000722:	60e2                	ld	ra,24(sp)
 8000724:	6442                	ld	s0,16(sp)
 8000726:	6105                	addi	sp,sp,32
 8000728:	8082                	ret

000000000800072a <_ZNSt6vectorIiSaIiEE19_S_nothrow_relocateESt17integral_constantIbLb1EE>:
 800072a:	1101                	addi	sp,sp,-32
 800072c:	ec22                	sd	s0,24(sp)
 800072e:	1000                	addi	s0,sp,32
 8000730:	fea40423          	sb	a0,-24(s0)
 8000734:	4785                	li	a5,1
 8000736:	853e                	mv	a0,a5
 8000738:	6462                	ld	s0,24(sp)
 800073a:	6105                	addi	sp,sp,32
 800073c:	8082                	ret

000000000800073e <_ZNSt6vectorIiSaIiEE17_M_realloc_insertIJRKiEEEvN9__gnu_cxx17__normal_iteratorIPiS1_EEDpOT_>:
 800073e:	7111                	addi	sp,sp,-256
 8000740:	fd86                	sd	ra,248(sp)
 8000742:	f9a2                	sd	s0,240(sp)
 8000744:	f5a6                	sd	s1,232(sp)
 8000746:	f1ca                	sd	s2,224(sp)
 8000748:	0200                	addi	s0,sp,256
 800074a:	f0a43c23          	sd	a0,-232(s0)
 800074e:	f0b43823          	sd	a1,-240(s0)
 8000752:	f0c43423          	sd	a2,-248(s0)
 8000756:	00012617          	auipc	a2,0x12
 800075a:	f1a60613          	addi	a2,a2,-230 # 8012670 <__clzdi2+0x46>
 800075e:	4585                	li	a1,1
 8000760:	f1843503          	ld	a0,-232(s0)
 8000764:	31e000ef          	jal	8000a82 <_ZNKSt6vectorIiSaIiEE12_M_check_lenEmPKc>
 8000768:	87aa                	mv	a5,a0
 800076a:	fcf43823          	sd	a5,-48(s0)
 800076e:	f1843783          	ld	a5,-232(s0)
 8000772:	639c                	ld	a5,0(a5)
 8000774:	fcf43423          	sd	a5,-56(s0)
 8000778:	f1843783          	ld	a5,-232(s0)
 800077c:	679c                	ld	a5,8(a5)
 800077e:	fcf43023          	sd	a5,-64(s0)
 8000782:	f1843503          	ld	a0,-232(s0)
 8000786:	3b2000ef          	jal	8000b38 <_ZNSt6vectorIiSaIiEE5beginEv>
 800078a:	87aa                	mv	a5,a0
 800078c:	f2f43423          	sd	a5,-216(s0)
 8000790:	f2840713          	addi	a4,s0,-216
 8000794:	f1040793          	addi	a5,s0,-240
 8000798:	85ba                	mv	a1,a4
 800079a:	853e                	mv	a0,a5
 800079c:	3c6000ef          	jal	8000b62 <_ZN9__gnu_cxxmiIPiSt6vectorIiSaIiEEEENS_17__normal_iteratorIT_T0_E15difference_typeERKS8_SB_>
 80007a0:	87aa                	mv	a5,a0
 80007a2:	faf43c23          	sd	a5,-72(s0)
 80007a6:	f1843783          	ld	a5,-232(s0)
 80007aa:	fd043583          	ld	a1,-48(s0)
 80007ae:	853e                	mv	a0,a5
 80007b0:	3ee000ef          	jal	8000b9e <_ZNSt12_Vector_baseIiSaIiEE11_M_allocateEm>
 80007b4:	87aa                	mv	a5,a0
 80007b6:	faf43823          	sd	a5,-80(s0)
 80007ba:	fb043783          	ld	a5,-80(s0)
 80007be:	fcf43c23          	sd	a5,-40(s0)
 80007c2:	f1843903          	ld	s2,-232(s0)
 80007c6:	fb843783          	ld	a5,-72(s0)
 80007ca:	078a                	slli	a5,a5,0x2
 80007cc:	fb043703          	ld	a4,-80(s0)
 80007d0:	00f704b3          	add	s1,a4,a5
 80007d4:	f0843503          	ld	a0,-248(s0)
 80007d8:	272000ef          	jal	8000a4a <_ZSt7forwardIRKiEOT_RNSt16remove_referenceIS2_E4typeE>
 80007dc:	87aa                	mv	a5,a0
 80007de:	fb243423          	sd	s2,-88(s0)
 80007e2:	fa943023          	sd	s1,-96(s0)
 80007e6:	f8f43c23          	sd	a5,-104(s0)
 80007ea:	f9843503          	ld	a0,-104(s0)
 80007ee:	25c000ef          	jal	8000a4a <_ZSt7forwardIRKiEOT_RNSt16remove_referenceIS2_E4typeE>
 80007f2:	872a                	mv	a4,a0
 80007f4:	fa843783          	ld	a5,-88(s0)
 80007f8:	f8f43823          	sd	a5,-112(s0)
 80007fc:	fa043783          	ld	a5,-96(s0)
 8000800:	f8f43423          	sd	a5,-120(s0)
 8000804:	f8e43023          	sd	a4,-128(s0)
 8000808:	f8843783          	ld	a5,-120(s0)
 800080c:	85be                	mv	a1,a5
 800080e:	4511                	li	a0,4
 8000810:	c2dff0ef          	jal	800043c <_ZnwmPv>
 8000814:	84aa                	mv	s1,a0
 8000816:	f8043503          	ld	a0,-128(s0)
 800081a:	230000ef          	jal	8000a4a <_ZSt7forwardIRKiEOT_RNSt16remove_referenceIS2_E4typeE>
 800081e:	87aa                	mv	a5,a0
 8000820:	439c                	lw	a5,0(a5)
 8000822:	c09c                	sw	a5,0(s1)
 8000824:	0001                	nop
 8000826:	0001                	nop
 8000828:	fc043c23          	sd	zero,-40(s0)
 800082c:	ee5ff0ef          	jal	8000710 <_ZNSt6vectorIiSaIiEE15_S_use_relocateEv>
 8000830:	87aa                	mv	a5,a0
 8000832:	c7ad                	beqz	a5,800089c <_ZNSt6vectorIiSaIiEE17_M_realloc_insertIJRKiEEEvN9__gnu_cxx17__normal_iteratorIPiS1_EEDpOT_+0x15e>
 8000834:	f1040793          	addi	a5,s0,-240
 8000838:	853e                	mv	a0,a5
 800083a:	3e4000ef          	jal	8000c1e <_ZNK9__gnu_cxx17__normal_iteratorIPiSt6vectorIiSaIiEEE4baseEv>
 800083e:	87aa                	mv	a5,a0
 8000840:	6384                	ld	s1,0(a5)
 8000842:	f1843783          	ld	a5,-232(s0)
 8000846:	853e                	mv	a0,a5
 8000848:	e85ff0ef          	jal	80006cc <_ZNSt12_Vector_baseIiSaIiEE19_M_get_Tp_allocatorEv>
 800084c:	87aa                	mv	a5,a0
 800084e:	86be                	mv	a3,a5
 8000850:	fb043603          	ld	a2,-80(s0)
 8000854:	85a6                	mv	a1,s1
 8000856:	fc843503          	ld	a0,-56(s0)
 800085a:	38a000ef          	jal	8000be4 <_ZNSt6vectorIiSaIiEE11_S_relocateEPiS2_S2_RS0_>
 800085e:	fca43c23          	sd	a0,-40(s0)
 8000862:	fd843783          	ld	a5,-40(s0)
 8000866:	0791                	addi	a5,a5,4
 8000868:	fcf43c23          	sd	a5,-40(s0)
 800086c:	f1040793          	addi	a5,s0,-240
 8000870:	853e                	mv	a0,a5
 8000872:	3ac000ef          	jal	8000c1e <_ZNK9__gnu_cxx17__normal_iteratorIPiSt6vectorIiSaIiEEE4baseEv>
 8000876:	87aa                	mv	a5,a0
 8000878:	6384                	ld	s1,0(a5)
 800087a:	f1843783          	ld	a5,-232(s0)
 800087e:	853e                	mv	a0,a5
 8000880:	e4dff0ef          	jal	80006cc <_ZNSt12_Vector_baseIiSaIiEE19_M_get_Tp_allocatorEv>
 8000884:	87aa                	mv	a5,a0
 8000886:	86be                	mv	a3,a5
 8000888:	fd843603          	ld	a2,-40(s0)
 800088c:	fc043583          	ld	a1,-64(s0)
 8000890:	8526                	mv	a0,s1
 8000892:	352000ef          	jal	8000be4 <_ZNSt6vectorIiSaIiEE11_S_relocateEPiS2_S2_RS0_>
 8000896:	fca43c23          	sd	a0,-40(s0)
 800089a:	a0b5                	j	8000906 <_ZNSt6vectorIiSaIiEE17_M_realloc_insertIJRKiEEEvN9__gnu_cxx17__normal_iteratorIPiS1_EEDpOT_+0x1c8>
 800089c:	f1040793          	addi	a5,s0,-240
 80008a0:	853e                	mv	a0,a5
 80008a2:	37c000ef          	jal	8000c1e <_ZNK9__gnu_cxx17__normal_iteratorIPiSt6vectorIiSaIiEEE4baseEv>
 80008a6:	87aa                	mv	a5,a0
 80008a8:	6384                	ld	s1,0(a5)
 80008aa:	f1843783          	ld	a5,-232(s0)
 80008ae:	853e                	mv	a0,a5
 80008b0:	e1dff0ef          	jal	80006cc <_ZNSt12_Vector_baseIiSaIiEE19_M_get_Tp_allocatorEv>
 80008b4:	87aa                	mv	a5,a0
 80008b6:	86be                	mv	a3,a5
 80008b8:	fb043603          	ld	a2,-80(s0)
 80008bc:	85a6                	mv	a1,s1
 80008be:	fc843503          	ld	a0,-56(s0)
 80008c2:	372000ef          	jal	8000c34 <_ZSt34__uninitialized_move_if_noexcept_aIPiS0_SaIiEET0_T_S3_S2_RT1_>
 80008c6:	87aa                	mv	a5,a0
 80008c8:	fcf43c23          	sd	a5,-40(s0)
 80008cc:	fd843783          	ld	a5,-40(s0)
 80008d0:	0791                	addi	a5,a5,4
 80008d2:	fcf43c23          	sd	a5,-40(s0)
 80008d6:	f1040793          	addi	a5,s0,-240
 80008da:	853e                	mv	a0,a5
 80008dc:	342000ef          	jal	8000c1e <_ZNK9__gnu_cxx17__normal_iteratorIPiSt6vectorIiSaIiEEE4baseEv>
 80008e0:	87aa                	mv	a5,a0
 80008e2:	6384                	ld	s1,0(a5)
 80008e4:	f1843783          	ld	a5,-232(s0)
 80008e8:	853e                	mv	a0,a5
 80008ea:	de3ff0ef          	jal	80006cc <_ZNSt12_Vector_baseIiSaIiEE19_M_get_Tp_allocatorEv>
 80008ee:	87aa                	mv	a5,a0
 80008f0:	86be                	mv	a3,a5
 80008f2:	fd843603          	ld	a2,-40(s0)
 80008f6:	fc043583          	ld	a1,-64(s0)
 80008fa:	8526                	mv	a0,s1
 80008fc:	338000ef          	jal	8000c34 <_ZSt34__uninitialized_move_if_noexcept_aIPiS0_SaIiEET0_T_S3_S2_RT1_>
 8000900:	87aa                	mv	a5,a0
 8000902:	fcf43c23          	sd	a5,-40(s0)
 8000906:	e0bff0ef          	jal	8000710 <_ZNSt6vectorIiSaIiEE15_S_use_relocateEv>
 800090a:	87aa                	mv	a5,a0
 800090c:	0017c793          	xori	a5,a5,1
 8000910:	0ff7f793          	zext.b	a5,a5
 8000914:	cb85                	beqz	a5,8000944 <_ZNSt6vectorIiSaIiEE17_M_realloc_insertIJRKiEEEvN9__gnu_cxx17__normal_iteratorIPiS1_EEDpOT_+0x206>
 8000916:	f1843783          	ld	a5,-232(s0)
 800091a:	853e                	mv	a0,a5
 800091c:	db1ff0ef          	jal	80006cc <_ZNSt12_Vector_baseIiSaIiEE19_M_get_Tp_allocatorEv>
 8000920:	872a                	mv	a4,a0
 8000922:	fc843783          	ld	a5,-56(s0)
 8000926:	f6f43c23          	sd	a5,-136(s0)
 800092a:	fc043783          	ld	a5,-64(s0)
 800092e:	f6f43823          	sd	a5,-144(s0)
 8000932:	f6e43423          	sd	a4,-152(s0)
 8000936:	f7043583          	ld	a1,-144(s0)
 800093a:	f7843503          	ld	a0,-136(s0)
 800093e:	0e6000ef          	jal	8000a24 <_ZSt8_DestroyIPiEvT_S1_>
 8000942:	0001                	nop
 8000944:	f1843683          	ld	a3,-232(s0)
 8000948:	f1843783          	ld	a5,-232(s0)
 800094c:	6b98                	ld	a4,16(a5)
 800094e:	fc843783          	ld	a5,-56(s0)
 8000952:	40f707b3          	sub	a5,a4,a5
 8000956:	8789                	srai	a5,a5,0x2
 8000958:	863e                	mv	a2,a5
 800095a:	fc843583          	ld	a1,-56(s0)
 800095e:	8536                	mv	a0,a3
 8000960:	d1fff0ef          	jal	800067e <_ZNSt12_Vector_baseIiSaIiEE13_M_deallocateEPim>
 8000964:	f1843783          	ld	a5,-232(s0)
 8000968:	fb043703          	ld	a4,-80(s0)
 800096c:	e398                	sd	a4,0(a5)
 800096e:	f1843783          	ld	a5,-232(s0)
 8000972:	fd843703          	ld	a4,-40(s0)
 8000976:	e798                	sd	a4,8(a5)
 8000978:	fd043783          	ld	a5,-48(s0)
 800097c:	078a                	slli	a5,a5,0x2
 800097e:	fb043703          	ld	a4,-80(s0)
 8000982:	973e                	add	a4,a4,a5
 8000984:	f1843783          	ld	a5,-232(s0)
 8000988:	eb98                	sd	a4,16(a5)
 800098a:	a079                	j	8000a18 <_ZNSt6vectorIiSaIiEE17_M_realloc_insertIJRKiEEEvN9__gnu_cxx17__normal_iteratorIPiS1_EEDpOT_+0x2da>
 800098c:	87aa                	mv	a5,a0
 800098e:	853e                	mv	a0,a5
 8000990:	0f1000ef          	jal	8001280 <__cxa_begin_catch>
 8000994:	fd843783          	ld	a5,-40(s0)
 8000998:	e79d                	bnez	a5,80009c6 <_ZNSt6vectorIiSaIiEE17_M_realloc_insertIJRKiEEEvN9__gnu_cxx17__normal_iteratorIPiS1_EEDpOT_+0x288>
 800099a:	f1843703          	ld	a4,-232(s0)
 800099e:	fb843783          	ld	a5,-72(s0)
 80009a2:	078a                	slli	a5,a5,0x2
 80009a4:	fb043683          	ld	a3,-80(s0)
 80009a8:	97b6                	add	a5,a5,a3
 80009aa:	f6e43023          	sd	a4,-160(s0)
 80009ae:	f4f43c23          	sd	a5,-168(s0)
 80009b2:	f6043783          	ld	a5,-160(s0)
 80009b6:	f4f43823          	sd	a5,-176(s0)
 80009ba:	f5843783          	ld	a5,-168(s0)
 80009be:	f4f43423          	sd	a5,-184(s0)
 80009c2:	0001                	nop
 80009c4:	a805                	j	80009f4 <_ZNSt6vectorIiSaIiEE17_M_realloc_insertIJRKiEEEvN9__gnu_cxx17__normal_iteratorIPiS1_EEDpOT_+0x2b6>
 80009c6:	f1843783          	ld	a5,-232(s0)
 80009ca:	853e                	mv	a0,a5
 80009cc:	d01ff0ef          	jal	80006cc <_ZNSt12_Vector_baseIiSaIiEE19_M_get_Tp_allocatorEv>
 80009d0:	872a                	mv	a4,a0
 80009d2:	fb043783          	ld	a5,-80(s0)
 80009d6:	f4f43023          	sd	a5,-192(s0)
 80009da:	fd843783          	ld	a5,-40(s0)
 80009de:	f2f43c23          	sd	a5,-200(s0)
 80009e2:	f2e43823          	sd	a4,-208(s0)
 80009e6:	f3843583          	ld	a1,-200(s0)
 80009ea:	f4043503          	ld	a0,-192(s0)
 80009ee:	036000ef          	jal	8000a24 <_ZSt8_DestroyIPiEvT_S1_>
 80009f2:	0001                	nop
 80009f4:	f1843783          	ld	a5,-232(s0)
 80009f8:	fd043603          	ld	a2,-48(s0)
 80009fc:	fb043583          	ld	a1,-80(s0)
 8000a00:	853e                	mv	a0,a5
 8000a02:	c7dff0ef          	jal	800067e <_ZNSt12_Vector_baseIiSaIiEE13_M_deallocateEPim>
 8000a06:	058010ef          	jal	8001a5e <__cxa_rethrow>
 8000a0a:	84aa                	mv	s1,a0
 8000a0c:	0e5000ef          	jal	80012f0 <__cxa_end_catch>
 8000a10:	87a6                	mv	a5,s1
 8000a12:	853e                	mv	a0,a5
 8000a14:	172080ef          	jal	8008b86 <_Unwind_Resume>
 8000a18:	70ee                	ld	ra,248(sp)
 8000a1a:	744e                	ld	s0,240(sp)
 8000a1c:	74ae                	ld	s1,232(sp)
 8000a1e:	790e                	ld	s2,224(sp)
 8000a20:	6111                	addi	sp,sp,256
 8000a22:	8082                	ret

0000000008000a24 <_ZSt8_DestroyIPiEvT_S1_>:
 8000a24:	1101                	addi	sp,sp,-32
 8000a26:	ec06                	sd	ra,24(sp)
 8000a28:	e822                	sd	s0,16(sp)
 8000a2a:	1000                	addi	s0,sp,32
 8000a2c:	fea43423          	sd	a0,-24(s0)
 8000a30:	feb43023          	sd	a1,-32(s0)
 8000a34:	fe043583          	ld	a1,-32(s0)
 8000a38:	fe843503          	ld	a0,-24(s0)
 8000a3c:	26a000ef          	jal	8000ca6 <_ZNSt12_Destroy_auxILb1EE9__destroyIPiEEvT_S3_>
 8000a40:	0001                	nop
 8000a42:	60e2                	ld	ra,24(sp)
 8000a44:	6442                	ld	s0,16(sp)
 8000a46:	6105                	addi	sp,sp,32
 8000a48:	8082                	ret

0000000008000a4a <_ZSt7forwardIRKiEOT_RNSt16remove_referenceIS2_E4typeE>:
 8000a4a:	1101                	addi	sp,sp,-32
 8000a4c:	ec22                	sd	s0,24(sp)
 8000a4e:	1000                	addi	s0,sp,32
 8000a50:	fea43423          	sd	a0,-24(s0)
 8000a54:	fe843783          	ld	a5,-24(s0)
 8000a58:	853e                	mv	a0,a5
 8000a5a:	6462                	ld	s0,24(sp)
 8000a5c:	6105                	addi	sp,sp,32
 8000a5e:	8082                	ret

0000000008000a60 <_ZN9__gnu_cxx17__normal_iteratorIPiSt6vectorIiSaIiEEEC1ERKS1_>:
 8000a60:	1101                	addi	sp,sp,-32
 8000a62:	ec22                	sd	s0,24(sp)
 8000a64:	1000                	addi	s0,sp,32
 8000a66:	fea43423          	sd	a0,-24(s0)
 8000a6a:	feb43023          	sd	a1,-32(s0)
 8000a6e:	fe043783          	ld	a5,-32(s0)
 8000a72:	6398                	ld	a4,0(a5)
 8000a74:	fe843783          	ld	a5,-24(s0)
 8000a78:	e398                	sd	a4,0(a5)
 8000a7a:	0001                	nop
 8000a7c:	6462                	ld	s0,24(sp)
 8000a7e:	6105                	addi	sp,sp,32
 8000a80:	8082                	ret

0000000008000a82 <_ZNKSt6vectorIiSaIiEE12_M_check_lenEmPKc>:
 8000a82:	715d                	addi	sp,sp,-80
 8000a84:	e486                	sd	ra,72(sp)
 8000a86:	e0a2                	sd	s0,64(sp)
 8000a88:	fc26                	sd	s1,56(sp)
 8000a8a:	0880                	addi	s0,sp,80
 8000a8c:	fca43423          	sd	a0,-56(s0)
 8000a90:	fcb43023          	sd	a1,-64(s0)
 8000a94:	fac43c23          	sd	a2,-72(s0)
 8000a98:	fc843503          	ld	a0,-56(s0)
 8000a9c:	220000ef          	jal	8000cbc <_ZNKSt6vectorIiSaIiEE8max_sizeEv>
 8000aa0:	84aa                	mv	s1,a0
 8000aa2:	fc843503          	ld	a0,-56(s0)
 8000aa6:	240000ef          	jal	8000ce6 <_ZNKSt6vectorIiSaIiEE4sizeEv>
 8000aaa:	87aa                	mv	a5,a0
 8000aac:	40f48733          	sub	a4,s1,a5
 8000ab0:	fc043783          	ld	a5,-64(s0)
 8000ab4:	00f737b3          	sltu	a5,a4,a5
 8000ab8:	0ff7f793          	zext.b	a5,a5
 8000abc:	c789                	beqz	a5,8000ac6 <_ZNKSt6vectorIiSaIiEE12_M_check_lenEmPKc+0x44>
 8000abe:	fb843503          	ld	a0,-72(s0)
 8000ac2:	de2ff0ef          	jal	80000a4 <_ZSt20__throw_length_errorPKc>
 8000ac6:	fc843503          	ld	a0,-56(s0)
 8000aca:	21c000ef          	jal	8000ce6 <_ZNKSt6vectorIiSaIiEE4sizeEv>
 8000ace:	84aa                	mv	s1,a0
 8000ad0:	fc843503          	ld	a0,-56(s0)
 8000ad4:	212000ef          	jal	8000ce6 <_ZNKSt6vectorIiSaIiEE4sizeEv>
 8000ad8:	87aa                	mv	a5,a0
 8000ada:	fcf43823          	sd	a5,-48(s0)
 8000ade:	fc040713          	addi	a4,s0,-64
 8000ae2:	fd040793          	addi	a5,s0,-48
 8000ae6:	85ba                	mv	a1,a4
 8000ae8:	853e                	mv	a0,a5
 8000aea:	220000ef          	jal	8000d0a <_ZSt3maxImERKT_S2_S2_>
 8000aee:	87aa                	mv	a5,a0
 8000af0:	639c                	ld	a5,0(a5)
 8000af2:	97a6                	add	a5,a5,s1
 8000af4:	fcf43c23          	sd	a5,-40(s0)
 8000af8:	fc843503          	ld	a0,-56(s0)
 8000afc:	1ea000ef          	jal	8000ce6 <_ZNKSt6vectorIiSaIiEE4sizeEv>
 8000b00:	872a                	mv	a4,a0
 8000b02:	fd843783          	ld	a5,-40(s0)
 8000b06:	00e7eb63          	bltu	a5,a4,8000b1c <_ZNKSt6vectorIiSaIiEE12_M_check_lenEmPKc+0x9a>
 8000b0a:	fc843503          	ld	a0,-56(s0)
 8000b0e:	1ae000ef          	jal	8000cbc <_ZNKSt6vectorIiSaIiEE8max_sizeEv>
 8000b12:	872a                	mv	a4,a0
 8000b14:	fd843783          	ld	a5,-40(s0)
 8000b18:	00f77863          	bgeu	a4,a5,8000b28 <_ZNKSt6vectorIiSaIiEE12_M_check_lenEmPKc+0xa6>
 8000b1c:	fc843503          	ld	a0,-56(s0)
 8000b20:	19c000ef          	jal	8000cbc <_ZNKSt6vectorIiSaIiEE8max_sizeEv>
 8000b24:	87aa                	mv	a5,a0
 8000b26:	a019                	j	8000b2c <_ZNKSt6vectorIiSaIiEE12_M_check_lenEmPKc+0xaa>
 8000b28:	fd843783          	ld	a5,-40(s0)
 8000b2c:	853e                	mv	a0,a5
 8000b2e:	60a6                	ld	ra,72(sp)
 8000b30:	6406                	ld	s0,64(sp)
 8000b32:	74e2                	ld	s1,56(sp)
 8000b34:	6161                	addi	sp,sp,80
 8000b36:	8082                	ret

0000000008000b38 <_ZNSt6vectorIiSaIiEE5beginEv>:
 8000b38:	7179                	addi	sp,sp,-48
 8000b3a:	f406                	sd	ra,40(sp)
 8000b3c:	f022                	sd	s0,32(sp)
 8000b3e:	1800                	addi	s0,sp,48
 8000b40:	fca43c23          	sd	a0,-40(s0)
 8000b44:	fd843703          	ld	a4,-40(s0)
 8000b48:	fe840793          	addi	a5,s0,-24
 8000b4c:	85ba                	mv	a1,a4
 8000b4e:	853e                	mv	a0,a5
 8000b50:	f11ff0ef          	jal	8000a60 <_ZN9__gnu_cxx17__normal_iteratorIPiSt6vectorIiSaIiEEEC1ERKS1_>
 8000b54:	fe843783          	ld	a5,-24(s0)
 8000b58:	853e                	mv	a0,a5
 8000b5a:	70a2                	ld	ra,40(sp)
 8000b5c:	7402                	ld	s0,32(sp)
 8000b5e:	6145                	addi	sp,sp,48
 8000b60:	8082                	ret

0000000008000b62 <_ZN9__gnu_cxxmiIPiSt6vectorIiSaIiEEEENS_17__normal_iteratorIT_T0_E15difference_typeERKS8_SB_>:
 8000b62:	7179                	addi	sp,sp,-48
 8000b64:	f406                	sd	ra,40(sp)
 8000b66:	f022                	sd	s0,32(sp)
 8000b68:	ec26                	sd	s1,24(sp)
 8000b6a:	1800                	addi	s0,sp,48
 8000b6c:	fca43c23          	sd	a0,-40(s0)
 8000b70:	fcb43823          	sd	a1,-48(s0)
 8000b74:	fd843503          	ld	a0,-40(s0)
 8000b78:	0a6000ef          	jal	8000c1e <_ZNK9__gnu_cxx17__normal_iteratorIPiSt6vectorIiSaIiEEE4baseEv>
 8000b7c:	87aa                	mv	a5,a0
 8000b7e:	6384                	ld	s1,0(a5)
 8000b80:	fd043503          	ld	a0,-48(s0)
 8000b84:	09a000ef          	jal	8000c1e <_ZNK9__gnu_cxx17__normal_iteratorIPiSt6vectorIiSaIiEEE4baseEv>
 8000b88:	87aa                	mv	a5,a0
 8000b8a:	639c                	ld	a5,0(a5)
 8000b8c:	40f487b3          	sub	a5,s1,a5
 8000b90:	8789                	srai	a5,a5,0x2
 8000b92:	853e                	mv	a0,a5
 8000b94:	70a2                	ld	ra,40(sp)
 8000b96:	7402                	ld	s0,32(sp)
 8000b98:	64e2                	ld	s1,24(sp)
 8000b9a:	6145                	addi	sp,sp,48
 8000b9c:	8082                	ret

0000000008000b9e <_ZNSt12_Vector_baseIiSaIiEE11_M_allocateEm>:
 8000b9e:	7179                	addi	sp,sp,-48
 8000ba0:	f406                	sd	ra,40(sp)
 8000ba2:	f022                	sd	s0,32(sp)
 8000ba4:	1800                	addi	s0,sp,48
 8000ba6:	fca43c23          	sd	a0,-40(s0)
 8000baa:	fcb43823          	sd	a1,-48(s0)
 8000bae:	fd043783          	ld	a5,-48(s0)
 8000bb2:	c39d                	beqz	a5,8000bd8 <_ZNSt12_Vector_baseIiSaIiEE11_M_allocateEm+0x3a>
 8000bb4:	fd843783          	ld	a5,-40(s0)
 8000bb8:	fef43423          	sd	a5,-24(s0)
 8000bbc:	fd043783          	ld	a5,-48(s0)
 8000bc0:	fef43023          	sd	a5,-32(s0)
 8000bc4:	4601                	li	a2,0
 8000bc6:	fe043583          	ld	a1,-32(s0)
 8000bca:	fe843503          	ld	a0,-24(s0)
 8000bce:	270000ef          	jal	8000e3e <_ZNSt15__new_allocatorIiE8allocateEmPKv>
 8000bd2:	87aa                	mv	a5,a0
 8000bd4:	0001                	nop
 8000bd6:	a011                	j	8000bda <_ZNSt12_Vector_baseIiSaIiEE11_M_allocateEm+0x3c>
 8000bd8:	4781                	li	a5,0
 8000bda:	853e                	mv	a0,a5
 8000bdc:	70a2                	ld	ra,40(sp)
 8000bde:	7402                	ld	s0,32(sp)
 8000be0:	6145                	addi	sp,sp,48
 8000be2:	8082                	ret

0000000008000be4 <_ZNSt6vectorIiSaIiEE11_S_relocateEPiS2_S2_RS0_>:
 8000be4:	7179                	addi	sp,sp,-48
 8000be6:	f406                	sd	ra,40(sp)
 8000be8:	f022                	sd	s0,32(sp)
 8000bea:	1800                	addi	s0,sp,48
 8000bec:	fea43423          	sd	a0,-24(s0)
 8000bf0:	feb43023          	sd	a1,-32(s0)
 8000bf4:	fcc43c23          	sd	a2,-40(s0)
 8000bf8:	fcd43823          	sd	a3,-48(s0)
 8000bfc:	873e                	mv	a4,a5
 8000bfe:	fd043683          	ld	a3,-48(s0)
 8000c02:	fd843603          	ld	a2,-40(s0)
 8000c06:	fe043583          	ld	a1,-32(s0)
 8000c0a:	fe843503          	ld	a0,-24(s0)
 8000c0e:	12c000ef          	jal	8000d3a <_ZNSt6vectorIiSaIiEE14_S_do_relocateEPiS2_S2_RS0_St17integral_constantIbLb1EE>
 8000c12:	87aa                	mv	a5,a0
 8000c14:	853e                	mv	a0,a5
 8000c16:	70a2                	ld	ra,40(sp)
 8000c18:	7402                	ld	s0,32(sp)
 8000c1a:	6145                	addi	sp,sp,48
 8000c1c:	8082                	ret

0000000008000c1e <_ZNK9__gnu_cxx17__normal_iteratorIPiSt6vectorIiSaIiEEE4baseEv>:
 8000c1e:	1101                	addi	sp,sp,-32
 8000c20:	ec22                	sd	s0,24(sp)
 8000c22:	1000                	addi	s0,sp,32
 8000c24:	fea43423          	sd	a0,-24(s0)
 8000c28:	fe843783          	ld	a5,-24(s0)
 8000c2c:	853e                	mv	a0,a5
 8000c2e:	6462                	ld	s0,24(sp)
 8000c30:	6105                	addi	sp,sp,32
 8000c32:	8082                	ret

0000000008000c34 <_ZSt34__uninitialized_move_if_noexcept_aIPiS0_SaIiEET0_T_S3_S2_RT1_>:
 8000c34:	7139                	addi	sp,sp,-64
 8000c36:	fc06                	sd	ra,56(sp)
 8000c38:	f822                	sd	s0,48(sp)
 8000c3a:	f426                	sd	s1,40(sp)
 8000c3c:	0080                	addi	s0,sp,64
 8000c3e:	fca43c23          	sd	a0,-40(s0)
 8000c42:	fcb43823          	sd	a1,-48(s0)
 8000c46:	fcc43423          	sd	a2,-56(s0)
 8000c4a:	fcd43023          	sd	a3,-64(s0)
 8000c4e:	fd843503          	ld	a0,-40(s0)
 8000c52:	124000ef          	jal	8000d76 <_ZSt32__make_move_if_noexcept_iteratorIiSt13move_iteratorIPiEET0_PT_>
 8000c56:	84aa                	mv	s1,a0
 8000c58:	fd043503          	ld	a0,-48(s0)
 8000c5c:	11a000ef          	jal	8000d76 <_ZSt32__make_move_if_noexcept_iteratorIiSt13move_iteratorIPiEET0_PT_>
 8000c60:	87aa                	mv	a5,a0
 8000c62:	fc043683          	ld	a3,-64(s0)
 8000c66:	fc843603          	ld	a2,-56(s0)
 8000c6a:	85be                	mv	a1,a5
 8000c6c:	8526                	mv	a0,s1
 8000c6e:	130000ef          	jal	8000d9e <_ZSt22__uninitialized_copy_aISt13move_iteratorIPiES1_iET0_T_S4_S3_RSaIT1_E>
 8000c72:	87aa                	mv	a5,a0
 8000c74:	853e                	mv	a0,a5
 8000c76:	70e2                	ld	ra,56(sp)
 8000c78:	7442                	ld	s0,48(sp)
 8000c7a:	74a2                	ld	s1,40(sp)
 8000c7c:	6121                	addi	sp,sp,64
 8000c7e:	8082                	ret

0000000008000c80 <_ZNSt15__new_allocatorIiE10deallocateEPim>:
 8000c80:	7179                	addi	sp,sp,-48
 8000c82:	f406                	sd	ra,40(sp)
 8000c84:	f022                	sd	s0,32(sp)
 8000c86:	1800                	addi	s0,sp,48
 8000c88:	fea43423          	sd	a0,-24(s0)
 8000c8c:	feb43023          	sd	a1,-32(s0)
 8000c90:	fcc43c23          	sd	a2,-40(s0)
 8000c94:	fe043503          	ld	a0,-32(s0)
 8000c98:	5e4000ef          	jal	800127c <_ZdlPv>
 8000c9c:	0001                	nop
 8000c9e:	70a2                	ld	ra,40(sp)
 8000ca0:	7402                	ld	s0,32(sp)
 8000ca2:	6145                	addi	sp,sp,48
 8000ca4:	8082                	ret

0000000008000ca6 <_ZNSt12_Destroy_auxILb1EE9__destroyIPiEEvT_S3_>:
 8000ca6:	1101                	addi	sp,sp,-32
 8000ca8:	ec22                	sd	s0,24(sp)
 8000caa:	1000                	addi	s0,sp,32
 8000cac:	fea43423          	sd	a0,-24(s0)
 8000cb0:	feb43023          	sd	a1,-32(s0)
 8000cb4:	0001                	nop
 8000cb6:	6462                	ld	s0,24(sp)
 8000cb8:	6105                	addi	sp,sp,32
 8000cba:	8082                	ret

0000000008000cbc <_ZNKSt6vectorIiSaIiEE8max_sizeEv>:
 8000cbc:	1101                	addi	sp,sp,-32
 8000cbe:	ec06                	sd	ra,24(sp)
 8000cc0:	e822                	sd	s0,16(sp)
 8000cc2:	1000                	addi	s0,sp,32
 8000cc4:	fea43423          	sd	a0,-24(s0)
 8000cc8:	fe843783          	ld	a5,-24(s0)
 8000ccc:	853e                	mv	a0,a5
 8000cce:	15a000ef          	jal	8000e28 <_ZNKSt12_Vector_baseIiSaIiEE19_M_get_Tp_allocatorEv>
 8000cd2:	87aa                	mv	a5,a0
 8000cd4:	853e                	mv	a0,a5
 8000cd6:	0fc000ef          	jal	8000dd2 <_ZNSt6vectorIiSaIiEE11_S_max_sizeERKS0_>
 8000cda:	87aa                	mv	a5,a0
 8000cdc:	853e                	mv	a0,a5
 8000cde:	60e2                	ld	ra,24(sp)
 8000ce0:	6442                	ld	s0,16(sp)
 8000ce2:	6105                	addi	sp,sp,32
 8000ce4:	8082                	ret

0000000008000ce6 <_ZNKSt6vectorIiSaIiEE4sizeEv>:
 8000ce6:	1101                	addi	sp,sp,-32
 8000ce8:	ec22                	sd	s0,24(sp)
 8000cea:	1000                	addi	s0,sp,32
 8000cec:	fea43423          	sd	a0,-24(s0)
 8000cf0:	fe843783          	ld	a5,-24(s0)
 8000cf4:	6798                	ld	a4,8(a5)
 8000cf6:	fe843783          	ld	a5,-24(s0)
 8000cfa:	639c                	ld	a5,0(a5)
 8000cfc:	40f707b3          	sub	a5,a4,a5
 8000d00:	8789                	srai	a5,a5,0x2
 8000d02:	853e                	mv	a0,a5
 8000d04:	6462                	ld	s0,24(sp)
 8000d06:	6105                	addi	sp,sp,32
 8000d08:	8082                	ret

0000000008000d0a <_ZSt3maxImERKT_S2_S2_>:
 8000d0a:	1101                	addi	sp,sp,-32
 8000d0c:	ec22                	sd	s0,24(sp)
 8000d0e:	1000                	addi	s0,sp,32
 8000d10:	fea43423          	sd	a0,-24(s0)
 8000d14:	feb43023          	sd	a1,-32(s0)
 8000d18:	fe843783          	ld	a5,-24(s0)
 8000d1c:	6398                	ld	a4,0(a5)
 8000d1e:	fe043783          	ld	a5,-32(s0)
 8000d22:	639c                	ld	a5,0(a5)
 8000d24:	00f77563          	bgeu	a4,a5,8000d2e <_ZSt3maxImERKT_S2_S2_+0x24>
 8000d28:	fe043783          	ld	a5,-32(s0)
 8000d2c:	a019                	j	8000d32 <_ZSt3maxImERKT_S2_S2_+0x28>
 8000d2e:	fe843783          	ld	a5,-24(s0)
 8000d32:	853e                	mv	a0,a5
 8000d34:	6462                	ld	s0,24(sp)
 8000d36:	6105                	addi	sp,sp,32
 8000d38:	8082                	ret

0000000008000d3a <_ZNSt6vectorIiSaIiEE14_S_do_relocateEPiS2_S2_RS0_St17integral_constantIbLb1EE>:
 8000d3a:	7139                	addi	sp,sp,-64
 8000d3c:	fc06                	sd	ra,56(sp)
 8000d3e:	f822                	sd	s0,48(sp)
 8000d40:	0080                	addi	s0,sp,64
 8000d42:	fea43423          	sd	a0,-24(s0)
 8000d46:	feb43023          	sd	a1,-32(s0)
 8000d4a:	fcc43c23          	sd	a2,-40(s0)
 8000d4e:	fcd43823          	sd	a3,-48(s0)
 8000d52:	fce40423          	sb	a4,-56(s0)
 8000d56:	fd043683          	ld	a3,-48(s0)
 8000d5a:	fd843603          	ld	a2,-40(s0)
 8000d5e:	fe043583          	ld	a1,-32(s0)
 8000d62:	fe843503          	ld	a0,-24(s0)
 8000d66:	13a000ef          	jal	8000ea0 <_ZSt12__relocate_aIPiS0_SaIiEET0_T_S3_S2_RT1_>
 8000d6a:	87aa                	mv	a5,a0
 8000d6c:	853e                	mv	a0,a5
 8000d6e:	70e2                	ld	ra,56(sp)
 8000d70:	7442                	ld	s0,48(sp)
 8000d72:	6121                	addi	sp,sp,64
 8000d74:	8082                	ret

0000000008000d76 <_ZSt32__make_move_if_noexcept_iteratorIiSt13move_iteratorIPiEET0_PT_>:
 8000d76:	7179                	addi	sp,sp,-48
 8000d78:	f406                	sd	ra,40(sp)
 8000d7a:	f022                	sd	s0,32(sp)
 8000d7c:	1800                	addi	s0,sp,48
 8000d7e:	fca43c23          	sd	a0,-40(s0)
 8000d82:	fe840793          	addi	a5,s0,-24
 8000d86:	fd843583          	ld	a1,-40(s0)
 8000d8a:	853e                	mv	a0,a5
 8000d8c:	16c000ef          	jal	8000ef8 <_ZNSt13move_iteratorIPiEC1ES0_>
 8000d90:	fe843783          	ld	a5,-24(s0)
 8000d94:	853e                	mv	a0,a5
 8000d96:	70a2                	ld	ra,40(sp)
 8000d98:	7402                	ld	s0,32(sp)
 8000d9a:	6145                	addi	sp,sp,48
 8000d9c:	8082                	ret

0000000008000d9e <_ZSt22__uninitialized_copy_aISt13move_iteratorIPiES1_iET0_T_S4_S3_RSaIT1_E>:
 8000d9e:	7179                	addi	sp,sp,-48
 8000da0:	f406                	sd	ra,40(sp)
 8000da2:	f022                	sd	s0,32(sp)
 8000da4:	1800                	addi	s0,sp,48
 8000da6:	fea43423          	sd	a0,-24(s0)
 8000daa:	feb43023          	sd	a1,-32(s0)
 8000dae:	fcc43c23          	sd	a2,-40(s0)
 8000db2:	fcd43823          	sd	a3,-48(s0)
 8000db6:	fd843603          	ld	a2,-40(s0)
 8000dba:	fe043583          	ld	a1,-32(s0)
 8000dbe:	fe843503          	ld	a0,-24(s0)
 8000dc2:	164000ef          	jal	8000f26 <_ZSt18uninitialized_copyISt13move_iteratorIPiES1_ET0_T_S4_S3_>
 8000dc6:	87aa                	mv	a5,a0
 8000dc8:	853e                	mv	a0,a5
 8000dca:	70a2                	ld	ra,40(sp)
 8000dcc:	7402                	ld	s0,32(sp)
 8000dce:	6145                	addi	sp,sp,48
 8000dd0:	8082                	ret

0000000008000dd2 <_ZNSt6vectorIiSaIiEE11_S_max_sizeERKS0_>:
 8000dd2:	715d                	addi	sp,sp,-80
 8000dd4:	e486                	sd	ra,72(sp)
 8000dd6:	e0a2                	sd	s0,64(sp)
 8000dd8:	0880                	addi	s0,sp,80
 8000dda:	faa43c23          	sd	a0,-72(s0)
 8000dde:	57fd                	li	a5,-1
 8000de0:	838d                	srli	a5,a5,0x3
 8000de2:	fcf43823          	sd	a5,-48(s0)
 8000de6:	fb843783          	ld	a5,-72(s0)
 8000dea:	fef43423          	sd	a5,-24(s0)
 8000dee:	fe843783          	ld	a5,-24(s0)
 8000df2:	fef43023          	sd	a5,-32(s0)
 8000df6:	fe043783          	ld	a5,-32(s0)
 8000dfa:	fcf43c23          	sd	a5,-40(s0)
 8000dfe:	57fd                	li	a5,-1
 8000e00:	838d                	srli	a5,a5,0x3
 8000e02:	0001                	nop
 8000e04:	0001                	nop
 8000e06:	fcf43423          	sd	a5,-56(s0)
 8000e0a:	fc840713          	addi	a4,s0,-56
 8000e0e:	fd040793          	addi	a5,s0,-48
 8000e12:	85ba                	mv	a1,a4
 8000e14:	853e                	mv	a0,a5
 8000e16:	14c000ef          	jal	8000f62 <_ZSt3minImERKT_S2_S2_>
 8000e1a:	87aa                	mv	a5,a0
 8000e1c:	639c                	ld	a5,0(a5)
 8000e1e:	853e                	mv	a0,a5
 8000e20:	60a6                	ld	ra,72(sp)
 8000e22:	6406                	ld	s0,64(sp)
 8000e24:	6161                	addi	sp,sp,80
 8000e26:	8082                	ret

0000000008000e28 <_ZNKSt12_Vector_baseIiSaIiEE19_M_get_Tp_allocatorEv>:
 8000e28:	1101                	addi	sp,sp,-32
 8000e2a:	ec22                	sd	s0,24(sp)
 8000e2c:	1000                	addi	s0,sp,32
 8000e2e:	fea43423          	sd	a0,-24(s0)
 8000e32:	fe843783          	ld	a5,-24(s0)
 8000e36:	853e                	mv	a0,a5
 8000e38:	6462                	ld	s0,24(sp)
 8000e3a:	6105                	addi	sp,sp,32
 8000e3c:	8082                	ret

0000000008000e3e <_ZNSt15__new_allocatorIiE8allocateEmPKv>:
 8000e3e:	7139                	addi	sp,sp,-64
 8000e40:	fc06                	sd	ra,56(sp)
 8000e42:	f822                	sd	s0,48(sp)
 8000e44:	0080                	addi	s0,sp,64
 8000e46:	fca43c23          	sd	a0,-40(s0)
 8000e4a:	fcb43823          	sd	a1,-48(s0)
 8000e4e:	fcc43423          	sd	a2,-56(s0)
 8000e52:	fd843783          	ld	a5,-40(s0)
 8000e56:	fef43423          	sd	a5,-24(s0)
 8000e5a:	57fd                	li	a5,-1
 8000e5c:	838d                	srli	a5,a5,0x3
 8000e5e:	fd043703          	ld	a4,-48(s0)
 8000e62:	00e7b7b3          	sltu	a5,a5,a4
 8000e66:	0ff7f793          	zext.b	a5,a5
 8000e6a:	00f037b3          	snez	a5,a5
 8000e6e:	0ff7f793          	zext.b	a5,a5
 8000e72:	cb99                	beqz	a5,8000e88 <_ZNSt15__new_allocatorIiE8allocateEmPKv+0x4a>
 8000e74:	fd043703          	ld	a4,-48(s0)
 8000e78:	57fd                	li	a5,-1
 8000e7a:	8389                	srli	a5,a5,0x2
 8000e7c:	00e7f463          	bgeu	a5,a4,8000e84 <_ZNSt15__new_allocatorIiE8allocateEmPKv+0x46>
 8000e80:	9c0ff0ef          	jal	8000040 <_ZSt28__throw_bad_array_new_lengthv>
 8000e84:	994ff0ef          	jal	8000018 <_ZSt17__throw_bad_allocv>
 8000e88:	fd043783          	ld	a5,-48(s0)
 8000e8c:	078a                	slli	a5,a5,0x2
 8000e8e:	853e                	mv	a0,a5
 8000e90:	425000ef          	jal	8001ab4 <_Znwm>
 8000e94:	87aa                	mv	a5,a0
 8000e96:	853e                	mv	a0,a5
 8000e98:	70e2                	ld	ra,56(sp)
 8000e9a:	7442                	ld	s0,48(sp)
 8000e9c:	6121                	addi	sp,sp,64
 8000e9e:	8082                	ret

0000000008000ea0 <_ZSt12__relocate_aIPiS0_SaIiEET0_T_S3_S2_RT1_>:
 8000ea0:	7139                	addi	sp,sp,-64
 8000ea2:	fc06                	sd	ra,56(sp)
 8000ea4:	f822                	sd	s0,48(sp)
 8000ea6:	f426                	sd	s1,40(sp)
 8000ea8:	f04a                	sd	s2,32(sp)
 8000eaa:	0080                	addi	s0,sp,64
 8000eac:	fca43c23          	sd	a0,-40(s0)
 8000eb0:	fcb43823          	sd	a1,-48(s0)
 8000eb4:	fcc43423          	sd	a2,-56(s0)
 8000eb8:	fcd43023          	sd	a3,-64(s0)
 8000ebc:	fd843503          	ld	a0,-40(s0)
 8000ec0:	0d2000ef          	jal	8000f92 <_ZSt12__niter_baseIPiET_S1_>
 8000ec4:	84aa                	mv	s1,a0
 8000ec6:	fd043503          	ld	a0,-48(s0)
 8000eca:	0c8000ef          	jal	8000f92 <_ZSt12__niter_baseIPiET_S1_>
 8000ece:	892a                	mv	s2,a0
 8000ed0:	fc843503          	ld	a0,-56(s0)
 8000ed4:	0be000ef          	jal	8000f92 <_ZSt12__niter_baseIPiET_S1_>
 8000ed8:	87aa                	mv	a5,a0
 8000eda:	fc043683          	ld	a3,-64(s0)
 8000ede:	863e                	mv	a2,a5
 8000ee0:	85ca                	mv	a1,s2
 8000ee2:	8526                	mv	a0,s1
 8000ee4:	0c4000ef          	jal	8000fa8 <_ZSt14__relocate_a_1IiiENSt9enable_ifIXsrSt24__is_bitwise_relocatableIT_vE5valueEPS2_E4typeES4_S4_S4_RSaIT0_E>
 8000ee8:	87aa                	mv	a5,a0
 8000eea:	853e                	mv	a0,a5
 8000eec:	70e2                	ld	ra,56(sp)
 8000eee:	7442                	ld	s0,48(sp)
 8000ef0:	74a2                	ld	s1,40(sp)
 8000ef2:	7902                	ld	s2,32(sp)
 8000ef4:	6121                	addi	sp,sp,64
 8000ef6:	8082                	ret

0000000008000ef8 <_ZNSt13move_iteratorIPiEC1ES0_>:
 8000ef8:	1101                	addi	sp,sp,-32
 8000efa:	ec06                	sd	ra,24(sp)
 8000efc:	e822                	sd	s0,16(sp)
 8000efe:	1000                	addi	s0,sp,32
 8000f00:	fea43423          	sd	a0,-24(s0)
 8000f04:	feb43023          	sd	a1,-32(s0)
 8000f08:	fe040793          	addi	a5,s0,-32
 8000f0c:	853e                	mv	a0,a5
 8000f0e:	0f6000ef          	jal	8001004 <_ZSt4moveIRPiEONSt16remove_referenceIT_E4typeEOS3_>
 8000f12:	87aa                	mv	a5,a0
 8000f14:	6398                	ld	a4,0(a5)
 8000f16:	fe843783          	ld	a5,-24(s0)
 8000f1a:	e398                	sd	a4,0(a5)
 8000f1c:	0001                	nop
 8000f1e:	60e2                	ld	ra,24(sp)
 8000f20:	6442                	ld	s0,16(sp)
 8000f22:	6105                	addi	sp,sp,32
 8000f24:	8082                	ret

0000000008000f26 <_ZSt18uninitialized_copyISt13move_iteratorIPiES1_ET0_T_S4_S3_>:
 8000f26:	7139                	addi	sp,sp,-64
 8000f28:	fc06                	sd	ra,56(sp)
 8000f2a:	f822                	sd	s0,48(sp)
 8000f2c:	0080                	addi	s0,sp,64
 8000f2e:	fca43c23          	sd	a0,-40(s0)
 8000f32:	fcb43823          	sd	a1,-48(s0)
 8000f36:	fcc43423          	sd	a2,-56(s0)
 8000f3a:	4785                	li	a5,1
 8000f3c:	fef407a3          	sb	a5,-17(s0)
 8000f40:	4785                	li	a5,1
 8000f42:	fef40723          	sb	a5,-18(s0)
 8000f46:	fc843603          	ld	a2,-56(s0)
 8000f4a:	fd043583          	ld	a1,-48(s0)
 8000f4e:	fd843503          	ld	a0,-40(s0)
 8000f52:	0c8000ef          	jal	800101a <_ZNSt20__uninitialized_copyILb1EE13__uninit_copyISt13move_iteratorIPiES3_EET0_T_S6_S5_>
 8000f56:	87aa                	mv	a5,a0
 8000f58:	853e                	mv	a0,a5
 8000f5a:	70e2                	ld	ra,56(sp)
 8000f5c:	7442                	ld	s0,48(sp)
 8000f5e:	6121                	addi	sp,sp,64
 8000f60:	8082                	ret

0000000008000f62 <_ZSt3minImERKT_S2_S2_>:
 8000f62:	1101                	addi	sp,sp,-32
 8000f64:	ec22                	sd	s0,24(sp)
 8000f66:	1000                	addi	s0,sp,32
 8000f68:	fea43423          	sd	a0,-24(s0)
 8000f6c:	feb43023          	sd	a1,-32(s0)
 8000f70:	fe043783          	ld	a5,-32(s0)
 8000f74:	6398                	ld	a4,0(a5)
 8000f76:	fe843783          	ld	a5,-24(s0)
 8000f7a:	639c                	ld	a5,0(a5)
 8000f7c:	00f77563          	bgeu	a4,a5,8000f86 <_ZSt3minImERKT_S2_S2_+0x24>
 8000f80:	fe043783          	ld	a5,-32(s0)
 8000f84:	a019                	j	8000f8a <_ZSt3minImERKT_S2_S2_+0x28>
 8000f86:	fe843783          	ld	a5,-24(s0)
 8000f8a:	853e                	mv	a0,a5
 8000f8c:	6462                	ld	s0,24(sp)
 8000f8e:	6105                	addi	sp,sp,32
 8000f90:	8082                	ret

0000000008000f92 <_ZSt12__niter_baseIPiET_S1_>:
 8000f92:	1101                	addi	sp,sp,-32
 8000f94:	ec22                	sd	s0,24(sp)
 8000f96:	1000                	addi	s0,sp,32
 8000f98:	fea43423          	sd	a0,-24(s0)
 8000f9c:	fe843783          	ld	a5,-24(s0)
 8000fa0:	853e                	mv	a0,a5
 8000fa2:	6462                	ld	s0,24(sp)
 8000fa4:	6105                	addi	sp,sp,32
 8000fa6:	8082                	ret

0000000008000fa8 <_ZSt14__relocate_a_1IiiENSt9enable_ifIXsrSt24__is_bitwise_relocatableIT_vE5valueEPS2_E4typeES4_S4_S4_RSaIT0_E>:
 8000fa8:	7139                	addi	sp,sp,-64
 8000faa:	fc06                	sd	ra,56(sp)
 8000fac:	f822                	sd	s0,48(sp)
 8000fae:	0080                	addi	s0,sp,64
 8000fb0:	fca43c23          	sd	a0,-40(s0)
 8000fb4:	fcb43823          	sd	a1,-48(s0)
 8000fb8:	fcc43423          	sd	a2,-56(s0)
 8000fbc:	fcd43023          	sd	a3,-64(s0)
 8000fc0:	fd043703          	ld	a4,-48(s0)
 8000fc4:	fd843783          	ld	a5,-40(s0)
 8000fc8:	40f707b3          	sub	a5,a4,a5
 8000fcc:	8789                	srai	a5,a5,0x2
 8000fce:	fef43423          	sd	a5,-24(s0)
 8000fd2:	fe843783          	ld	a5,-24(s0)
 8000fd6:	00f05c63          	blez	a5,8000fee <_ZSt14__relocate_a_1IiiENSt9enable_ifIXsrSt24__is_bitwise_relocatableIT_vE5valueEPS2_E4typeES4_S4_S4_RSaIT0_E+0x46>
 8000fda:	fe843783          	ld	a5,-24(s0)
 8000fde:	078a                	slli	a5,a5,0x2
 8000fe0:	863e                	mv	a2,a5
 8000fe2:	fd843583          	ld	a1,-40(s0)
 8000fe6:	fc843503          	ld	a0,-56(s0)
 8000fea:	6ce0a0ef          	jal	800b6b8 <memmove>
 8000fee:	fe843783          	ld	a5,-24(s0)
 8000ff2:	078a                	slli	a5,a5,0x2
 8000ff4:	fc843703          	ld	a4,-56(s0)
 8000ff8:	97ba                	add	a5,a5,a4
 8000ffa:	853e                	mv	a0,a5
 8000ffc:	70e2                	ld	ra,56(sp)
 8000ffe:	7442                	ld	s0,48(sp)
 8001000:	6121                	addi	sp,sp,64
 8001002:	8082                	ret

0000000008001004 <_ZSt4moveIRPiEONSt16remove_referenceIT_E4typeEOS3_>:
 8001004:	1101                	addi	sp,sp,-32
 8001006:	ec22                	sd	s0,24(sp)
 8001008:	1000                	addi	s0,sp,32
 800100a:	fea43423          	sd	a0,-24(s0)
 800100e:	fe843783          	ld	a5,-24(s0)
 8001012:	853e                	mv	a0,a5
 8001014:	6462                	ld	s0,24(sp)
 8001016:	6105                	addi	sp,sp,32
 8001018:	8082                	ret

000000000800101a <_ZNSt20__uninitialized_copyILb1EE13__uninit_copyISt13move_iteratorIPiES3_EET0_T_S6_S5_>:
 800101a:	7179                	addi	sp,sp,-48
 800101c:	f406                	sd	ra,40(sp)
 800101e:	f022                	sd	s0,32(sp)
 8001020:	1800                	addi	s0,sp,48
 8001022:	fea43423          	sd	a0,-24(s0)
 8001026:	feb43023          	sd	a1,-32(s0)
 800102a:	fcc43c23          	sd	a2,-40(s0)
 800102e:	fd843603          	ld	a2,-40(s0)
 8001032:	fe043583          	ld	a1,-32(s0)
 8001036:	fe843503          	ld	a0,-24(s0)
 800103a:	010000ef          	jal	800104a <_ZSt4copyISt13move_iteratorIPiES1_ET0_T_S4_S3_>
 800103e:	87aa                	mv	a5,a0
 8001040:	853e                	mv	a0,a5
 8001042:	70a2                	ld	ra,40(sp)
 8001044:	7402                	ld	s0,32(sp)
 8001046:	6145                	addi	sp,sp,48
 8001048:	8082                	ret

000000000800104a <_ZSt4copyISt13move_iteratorIPiES1_ET0_T_S4_S3_>:
 800104a:	7139                	addi	sp,sp,-64
 800104c:	fc06                	sd	ra,56(sp)
 800104e:	f822                	sd	s0,48(sp)
 8001050:	f426                	sd	s1,40(sp)
 8001052:	0080                	addi	s0,sp,64
 8001054:	fca43c23          	sd	a0,-40(s0)
 8001058:	fcb43823          	sd	a1,-48(s0)
 800105c:	fcc43423          	sd	a2,-56(s0)
 8001060:	fd843503          	ld	a0,-40(s0)
 8001064:	02a000ef          	jal	800108e <_ZSt12__miter_baseIPiEDTcl12__miter_basecldtfp_4baseEEESt13move_iteratorIT_E>
 8001068:	84aa                	mv	s1,a0
 800106a:	fd043503          	ld	a0,-48(s0)
 800106e:	020000ef          	jal	800108e <_ZSt12__miter_baseIPiEDTcl12__miter_basecldtfp_4baseEEESt13move_iteratorIT_E>
 8001072:	87aa                	mv	a5,a0
 8001074:	fc843603          	ld	a2,-56(s0)
 8001078:	85be                	mv	a1,a5
 800107a:	8526                	mv	a0,s1
 800107c:	03c000ef          	jal	80010b8 <_ZSt13__copy_move_aILb1EPiS0_ET1_T0_S2_S1_>
 8001080:	87aa                	mv	a5,a0
 8001082:	853e                	mv	a0,a5
 8001084:	70e2                	ld	ra,56(sp)
 8001086:	7442                	ld	s0,48(sp)
 8001088:	74a2                	ld	s1,40(sp)
 800108a:	6121                	addi	sp,sp,64
 800108c:	8082                	ret

000000000800108e <_ZSt12__miter_baseIPiEDTcl12__miter_basecldtfp_4baseEEESt13move_iteratorIT_E>:
 800108e:	1101                	addi	sp,sp,-32
 8001090:	ec06                	sd	ra,24(sp)
 8001092:	e822                	sd	s0,16(sp)
 8001094:	1000                	addi	s0,sp,32
 8001096:	fea43423          	sd	a0,-24(s0)
 800109a:	fe840793          	addi	a5,s0,-24
 800109e:	853e                	mv	a0,a5
 80010a0:	078000ef          	jal	8001118 <_ZNKSt13move_iteratorIPiE4baseEv>
 80010a4:	87aa                	mv	a5,a0
 80010a6:	853e                	mv	a0,a5
 80010a8:	088000ef          	jal	8001130 <_ZSt12__miter_baseIPiET_S1_>
 80010ac:	87aa                	mv	a5,a0
 80010ae:	853e                	mv	a0,a5
 80010b0:	60e2                	ld	ra,24(sp)
 80010b2:	6442                	ld	s0,16(sp)
 80010b4:	6105                	addi	sp,sp,32
 80010b6:	8082                	ret

00000000080010b8 <_ZSt13__copy_move_aILb1EPiS0_ET1_T0_S2_S1_>:
 80010b8:	7139                	addi	sp,sp,-64
 80010ba:	fc06                	sd	ra,56(sp)
 80010bc:	f822                	sd	s0,48(sp)
 80010be:	f426                	sd	s1,40(sp)
 80010c0:	f04a                	sd	s2,32(sp)
 80010c2:	0080                	addi	s0,sp,64
 80010c4:	fca43c23          	sd	a0,-40(s0)
 80010c8:	fcb43823          	sd	a1,-48(s0)
 80010cc:	fcc43423          	sd	a2,-56(s0)
 80010d0:	fd843503          	ld	a0,-40(s0)
 80010d4:	ebfff0ef          	jal	8000f92 <_ZSt12__niter_baseIPiET_S1_>
 80010d8:	84aa                	mv	s1,a0
 80010da:	fd043503          	ld	a0,-48(s0)
 80010de:	eb5ff0ef          	jal	8000f92 <_ZSt12__niter_baseIPiET_S1_>
 80010e2:	892a                	mv	s2,a0
 80010e4:	fc843783          	ld	a5,-56(s0)
 80010e8:	853e                	mv	a0,a5
 80010ea:	ea9ff0ef          	jal	8000f92 <_ZSt12__niter_baseIPiET_S1_>
 80010ee:	87aa                	mv	a5,a0
 80010f0:	863e                	mv	a2,a5
 80010f2:	85ca                	mv	a1,s2
 80010f4:	8526                	mv	a0,s1
 80010f6:	050000ef          	jal	8001146 <_ZSt14__copy_move_a1ILb1EPiS0_ET1_T0_S2_S1_>
 80010fa:	872a                	mv	a4,a0
 80010fc:	fc840793          	addi	a5,s0,-56
 8001100:	85ba                	mv	a1,a4
 8001102:	853e                	mv	a0,a5
 8001104:	072000ef          	jal	8001176 <_ZSt12__niter_wrapIPiET_RKS1_S1_>
 8001108:	87aa                	mv	a5,a0
 800110a:	853e                	mv	a0,a5
 800110c:	70e2                	ld	ra,56(sp)
 800110e:	7442                	ld	s0,48(sp)
 8001110:	74a2                	ld	s1,40(sp)
 8001112:	7902                	ld	s2,32(sp)
 8001114:	6121                	addi	sp,sp,64
 8001116:	8082                	ret

0000000008001118 <_ZNKSt13move_iteratorIPiE4baseEv>:
 8001118:	1101                	addi	sp,sp,-32
 800111a:	ec22                	sd	s0,24(sp)
 800111c:	1000                	addi	s0,sp,32
 800111e:	fea43423          	sd	a0,-24(s0)
 8001122:	fe843783          	ld	a5,-24(s0)
 8001126:	639c                	ld	a5,0(a5)
 8001128:	853e                	mv	a0,a5
 800112a:	6462                	ld	s0,24(sp)
 800112c:	6105                	addi	sp,sp,32
 800112e:	8082                	ret

0000000008001130 <_ZSt12__miter_baseIPiET_S1_>:
 8001130:	1101                	addi	sp,sp,-32
 8001132:	ec22                	sd	s0,24(sp)
 8001134:	1000                	addi	s0,sp,32
 8001136:	fea43423          	sd	a0,-24(s0)
 800113a:	fe843783          	ld	a5,-24(s0)
 800113e:	853e                	mv	a0,a5
 8001140:	6462                	ld	s0,24(sp)
 8001142:	6105                	addi	sp,sp,32
 8001144:	8082                	ret

0000000008001146 <_ZSt14__copy_move_a1ILb1EPiS0_ET1_T0_S2_S1_>:
 8001146:	7179                	addi	sp,sp,-48
 8001148:	f406                	sd	ra,40(sp)
 800114a:	f022                	sd	s0,32(sp)
 800114c:	1800                	addi	s0,sp,48
 800114e:	fea43423          	sd	a0,-24(s0)
 8001152:	feb43023          	sd	a1,-32(s0)
 8001156:	fcc43c23          	sd	a2,-40(s0)
 800115a:	fd843603          	ld	a2,-40(s0)
 800115e:	fe043583          	ld	a1,-32(s0)
 8001162:	fe843503          	ld	a0,-24(s0)
 8001166:	02a000ef          	jal	8001190 <_ZSt14__copy_move_a2ILb1EPiS0_ET1_T0_S2_S1_>
 800116a:	87aa                	mv	a5,a0
 800116c:	853e                	mv	a0,a5
 800116e:	70a2                	ld	ra,40(sp)
 8001170:	7402                	ld	s0,32(sp)
 8001172:	6145                	addi	sp,sp,48
 8001174:	8082                	ret

0000000008001176 <_ZSt12__niter_wrapIPiET_RKS1_S1_>:
 8001176:	1101                	addi	sp,sp,-32
 8001178:	ec22                	sd	s0,24(sp)
 800117a:	1000                	addi	s0,sp,32
 800117c:	fea43423          	sd	a0,-24(s0)
 8001180:	feb43023          	sd	a1,-32(s0)
 8001184:	fe043783          	ld	a5,-32(s0)
 8001188:	853e                	mv	a0,a5
 800118a:	6462                	ld	s0,24(sp)
 800118c:	6105                	addi	sp,sp,32
 800118e:	8082                	ret

0000000008001190 <_ZSt14__copy_move_a2ILb1EPiS0_ET1_T0_S2_S1_>:
 8001190:	7179                	addi	sp,sp,-48
 8001192:	f406                	sd	ra,40(sp)
 8001194:	f022                	sd	s0,32(sp)
 8001196:	1800                	addi	s0,sp,48
 8001198:	fea43423          	sd	a0,-24(s0)
 800119c:	feb43023          	sd	a1,-32(s0)
 80011a0:	fcc43c23          	sd	a2,-40(s0)
 80011a4:	fd843603          	ld	a2,-40(s0)
 80011a8:	fe043583          	ld	a1,-32(s0)
 80011ac:	fe843503          	ld	a0,-24(s0)
 80011b0:	010000ef          	jal	80011c0 <_ZNSt11__copy_moveILb1ELb1ESt26random_access_iterator_tagE8__copy_mIiiEEPT0_PT_S6_S4_>
 80011b4:	87aa                	mv	a5,a0
 80011b6:	853e                	mv	a0,a5
 80011b8:	70a2                	ld	ra,40(sp)
 80011ba:	7402                	ld	s0,32(sp)
 80011bc:	6145                	addi	sp,sp,48
 80011be:	8082                	ret

00000000080011c0 <_ZNSt11__copy_moveILb1ELb1ESt26random_access_iterator_tagE8__copy_mIiiEEPT0_PT_S6_S4_>:
 80011c0:	7139                	addi	sp,sp,-64
 80011c2:	fc06                	sd	ra,56(sp)
 80011c4:	f822                	sd	s0,48(sp)
 80011c6:	0080                	addi	s0,sp,64
 80011c8:	fca43c23          	sd	a0,-40(s0)
 80011cc:	fcb43823          	sd	a1,-48(s0)
 80011d0:	fcc43423          	sd	a2,-56(s0)
 80011d4:	fd043703          	ld	a4,-48(s0)
 80011d8:	fd843783          	ld	a5,-40(s0)
 80011dc:	40f707b3          	sub	a5,a4,a5
 80011e0:	8789                	srai	a5,a5,0x2
 80011e2:	fef43423          	sd	a5,-24(s0)
 80011e6:	fe843783          	ld	a5,-24(s0)
 80011ea:	0027a793          	slti	a5,a5,2
 80011ee:	0017b793          	seqz	a5,a5
 80011f2:	0ff7f793          	zext.b	a5,a5
 80011f6:	cf81                	beqz	a5,800120e <_ZNSt11__copy_moveILb1ELb1ESt26random_access_iterator_tagE8__copy_mIiiEEPT0_PT_S6_S4_+0x4e>
 80011f8:	fe843783          	ld	a5,-24(s0)
 80011fc:	078a                	slli	a5,a5,0x2
 80011fe:	863e                	mv	a2,a5
 8001200:	fd843583          	ld	a1,-40(s0)
 8001204:	fc843503          	ld	a0,-56(s0)
 8001208:	4b00a0ef          	jal	800b6b8 <memmove>
 800120c:	a821                	j	8001224 <_ZNSt11__copy_moveILb1ELb1ESt26random_access_iterator_tagE8__copy_mIiiEEPT0_PT_S6_S4_+0x64>
 800120e:	fe843703          	ld	a4,-24(s0)
 8001212:	4785                	li	a5,1
 8001214:	00f71863          	bne	a4,a5,8001224 <_ZNSt11__copy_moveILb1ELb1ESt26random_access_iterator_tagE8__copy_mIiiEEPT0_PT_S6_S4_+0x64>
 8001218:	fd843583          	ld	a1,-40(s0)
 800121c:	fc843503          	ld	a0,-56(s0)
 8001220:	01a000ef          	jal	800123a <_ZNSt11__copy_moveILb1ELb0ESt26random_access_iterator_tagE12__assign_oneIiiEEvPT_PT0_>
 8001224:	fe843783          	ld	a5,-24(s0)
 8001228:	078a                	slli	a5,a5,0x2
 800122a:	fc843703          	ld	a4,-56(s0)
 800122e:	97ba                	add	a5,a5,a4
 8001230:	853e                	mv	a0,a5
 8001232:	70e2                	ld	ra,56(sp)
 8001234:	7442                	ld	s0,48(sp)
 8001236:	6121                	addi	sp,sp,64
 8001238:	8082                	ret

000000000800123a <_ZNSt11__copy_moveILb1ELb0ESt26random_access_iterator_tagE12__assign_oneIiiEEvPT_PT0_>:
 800123a:	1101                	addi	sp,sp,-32
 800123c:	ec06                	sd	ra,24(sp)
 800123e:	e822                	sd	s0,16(sp)
 8001240:	1000                	addi	s0,sp,32
 8001242:	fea43423          	sd	a0,-24(s0)
 8001246:	feb43023          	sd	a1,-32(s0)
 800124a:	fe043503          	ld	a0,-32(s0)
 800124e:	018000ef          	jal	8001266 <_ZSt4moveIRiEONSt16remove_referenceIT_E4typeEOS2_>
 8001252:	87aa                	mv	a5,a0
 8001254:	4398                	lw	a4,0(a5)
 8001256:	fe843783          	ld	a5,-24(s0)
 800125a:	c398                	sw	a4,0(a5)
 800125c:	0001                	nop
 800125e:	60e2                	ld	ra,24(sp)
 8001260:	6442                	ld	s0,16(sp)
 8001262:	6105                	addi	sp,sp,32
 8001264:	8082                	ret

0000000008001266 <_ZSt4moveIRiEONSt16remove_referenceIT_E4typeEOS2_>:
 8001266:	1101                	addi	sp,sp,-32
 8001268:	ec22                	sd	s0,24(sp)
 800126a:	1000                	addi	s0,sp,32
 800126c:	fea43423          	sd	a0,-24(s0)
 8001270:	fe843783          	ld	a5,-24(s0)
 8001274:	853e                	mv	a0,a5
 8001276:	6462                	ld	s0,24(sp)
 8001278:	6105                	addi	sp,sp,32
 800127a:	8082                	ret

000000000800127c <_ZdlPv>:
 800127c:	66b0806f          	j	800a0e6 <free>

0000000008001280 <__cxa_begin_catch>:
 8001280:	1141                	addi	sp,sp,-16
 8001282:	e022                	sd	s0,0(sp)
 8001284:	e406                	sd	ra,8(sp)
 8001286:	842a                	mv	s0,a0
 8001288:	0d4000ef          	jal	800135c <__cxa_get_globals>
 800128c:	b8b1b7b7          	lui	a5,0xb8b1b
 8001290:	abd78793          	addi	a5,a5,-1347 # ffffffffb8b1aabd <__stack_top+0xffffffffa8b1aabd>
 8001294:	07b2                	slli	a5,a5,0xc
 8001296:	bcd78793          	addi	a5,a5,-1075
 800129a:	6010                	ld	a2,0(s0)
 800129c:	07b2                	slli	a5,a5,0xc
 800129e:	4d578793          	addi	a5,a5,1237
 80012a2:	07a2                	slli	a5,a5,0x8
 80012a4:	97b2                	add	a5,a5,a2
 80012a6:	4605                	li	a2,1
 80012a8:	872a                	mv	a4,a0
 80012aa:	fb040693          	addi	a3,s0,-80
 80012ae:	6108                	ld	a0,0(a0)
 80012b0:	00f67a63          	bgeu	a2,a5,80012c4 <__cxa_begin_catch+0x44>
 80012b4:	c119                	beqz	a0,80012ba <__cxa_begin_catch+0x3a>
 80012b6:	6ba000ef          	jal	8001970 <_ZSt9terminatev>
 80012ba:	e314                	sd	a3,0(a4)
 80012bc:	60a2                	ld	ra,8(sp)
 80012be:	6402                	ld	s0,0(sp)
 80012c0:	0141                	addi	sp,sp,16
 80012c2:	8082                	ret
 80012c4:	fd842783          	lw	a5,-40(s0)
 80012c8:	0207d263          	bgez	a5,80012ec <__cxa_begin_catch+0x6c>
 80012cc:	4605                	li	a2,1
 80012ce:	40f607bb          	subw	a5,a2,a5
 80012d2:	fcf42c23          	sw	a5,-40(s0)
 80012d6:	471c                	lw	a5,8(a4)
 80012d8:	37fd                	addiw	a5,a5,-1
 80012da:	c71c                	sw	a5,8(a4)
 80012dc:	00d50563          	beq	a0,a3,80012e6 <__cxa_begin_catch+0x66>
 80012e0:	fca43823          	sd	a0,-48(s0)
 80012e4:	e314                	sd	a3,0(a4)
 80012e6:	ff843503          	ld	a0,-8(s0)
 80012ea:	bfc9                	j	80012bc <__cxa_begin_catch+0x3c>
 80012ec:	2785                	addiw	a5,a5,1
 80012ee:	b7d5                	j	80012d2 <__cxa_begin_catch+0x52>

00000000080012f0 <__cxa_end_catch>:
 80012f0:	1141                	addi	sp,sp,-16
 80012f2:	e406                	sd	ra,8(sp)
 80012f4:	062000ef          	jal	8001356 <__cxa_get_globals_fast>
 80012f8:	6118                	ld	a4,0(a0)
 80012fa:	c329                	beqz	a4,800133c <__cxa_end_catch+0x4c>
 80012fc:	b8b1b7b7          	lui	a5,0xb8b1b
 8001300:	abd78793          	addi	a5,a5,-1347 # ffffffffb8b1aabd <__stack_top+0xffffffffa8b1aabd>
 8001304:	07b2                	slli	a5,a5,0xc
 8001306:	bcd78793          	addi	a5,a5,-1075
 800130a:	6b34                	ld	a3,80(a4)
 800130c:	07b2                	slli	a5,a5,0xc
 800130e:	4d578793          	addi	a5,a5,1237
 8001312:	07a2                	slli	a5,a5,0x8
 8001314:	97b6                	add	a5,a5,a3
 8001316:	4685                	li	a3,1
 8001318:	00f6fa63          	bgeu	a3,a5,800132c <__cxa_end_catch+0x3c>
 800131c:	00053023          	sd	zero,0(a0)
 8001320:	60a2                	ld	ra,8(sp)
 8001322:	05070513          	addi	a0,a4,80
 8001326:	0141                	addi	sp,sp,16
 8001328:	4310706f          	j	8008f58 <_Unwind_DeleteException>
 800132c:	571c                	lw	a5,40(a4)
 800132e:	0007da63          	bgez	a5,8001342 <__cxa_end_catch+0x52>
 8001332:	2785                	addiw	a5,a5,1
 8001334:	e399                	bnez	a5,800133a <__cxa_end_catch+0x4a>
 8001336:	7314                	ld	a3,32(a4)
 8001338:	e114                	sd	a3,0(a0)
 800133a:	d71c                	sw	a5,40(a4)
 800133c:	60a2                	ld	ra,8(sp)
 800133e:	0141                	addi	sp,sp,16
 8001340:	8082                	ret
 8001342:	37fd                	addiw	a5,a5,-1
 8001344:	e781                	bnez	a5,800134c <__cxa_end_catch+0x5c>
 8001346:	731c                	ld	a5,32(a4)
 8001348:	e11c                	sd	a5,0(a0)
 800134a:	bfd9                	j	8001320 <__cxa_end_catch+0x30>
 800134c:	56fd                	li	a3,-1
 800134e:	fed796e3          	bne	a5,a3,800133a <__cxa_end_catch+0x4a>
 8001352:	61e000ef          	jal	8001970 <_ZSt9terminatev>

0000000008001356 <__cxa_get_globals_fast>:
 8001356:	48018513          	addi	a0,gp,1152 # 8018560 <_ZN12_GLOBAL__N_110eh_globalsE>
 800135a:	8082                	ret

000000000800135c <__cxa_get_globals>:
 800135c:	48018513          	addi	a0,gp,1152 # 8018560 <_ZN12_GLOBAL__N_110eh_globalsE>
 8001360:	8082                	ret

0000000008001362 <_ZL12read_uleb128PKhPm>:
 8001362:	4701                	li	a4,0
 8001364:	4681                	li	a3,0
 8001366:	00054783          	lbu	a5,0(a0)
 800136a:	0505                	addi	a0,a0,1
 800136c:	07f7f613          	andi	a2,a5,127
 8001370:	0187979b          	slliw	a5,a5,0x18
 8001374:	00d61633          	sll	a2,a2,a3
 8001378:	4187d79b          	sraiw	a5,a5,0x18
 800137c:	8f51                	or	a4,a4,a2
 800137e:	269d                	addiw	a3,a3,7
 8001380:	fe07c3e3          	bltz	a5,8001366 <_ZL12read_uleb128PKhPm+0x4>
 8001384:	e198                	sd	a4,0(a1)
 8001386:	8082                	ret

0000000008001388 <_ZL12read_sleb128PKhPl>:
 8001388:	4781                	li	a5,0
 800138a:	4701                	li	a4,0
 800138c:	00054683          	lbu	a3,0(a0)
 8001390:	0505                	addi	a0,a0,1
 8001392:	07f6f613          	andi	a2,a3,127
 8001396:	00e61633          	sll	a2,a2,a4
 800139a:	8fd1                	or	a5,a5,a2
 800139c:	0186961b          	slliw	a2,a3,0x18
 80013a0:	4186561b          	sraiw	a2,a2,0x18
 80013a4:	271d                	addiw	a4,a4,7
 80013a6:	fe0643e3          	bltz	a2,800138c <_ZL12read_sleb128PKhPl+0x4>
 80013aa:	03f00613          	li	a2,63
 80013ae:	00e66963          	bltu	a2,a4,80013c0 <_ZL12read_sleb128PKhPl+0x38>
 80013b2:	0406f693          	andi	a3,a3,64
 80013b6:	c689                	beqz	a3,80013c0 <_ZL12read_sleb128PKhPl+0x38>
 80013b8:	56fd                	li	a3,-1
 80013ba:	00e69733          	sll	a4,a3,a4
 80013be:	8fd9                	or	a5,a5,a4
 80013c0:	e19c                	sd	a5,0(a1)
 80013c2:	8082                	ret

00000000080013c4 <_ZL16get_adjusted_ptrPKSt9type_infoS1_PPv>:
 80013c4:	621c                	ld	a5,0(a2)
 80013c6:	7139                	addi	sp,sp,-64
 80013c8:	f822                	sd	s0,48(sp)
 80013ca:	ec3e                	sd	a5,24(sp)
 80013cc:	619c                	ld	a5,0(a1)
 80013ce:	f426                	sd	s1,40(sp)
 80013d0:	e42e                	sd	a1,8(sp)
 80013d2:	6b9c                	ld	a5,16(a5)
 80013d4:	fc06                	sd	ra,56(sp)
 80013d6:	84aa                	mv	s1,a0
 80013d8:	852e                	mv	a0,a1
 80013da:	8432                	mv	s0,a2
 80013dc:	9782                	jalr	a5
 80013de:	65a2                	ld	a1,8(sp)
 80013e0:	c501                	beqz	a0,80013e8 <_ZL16get_adjusted_ptrPKSt9type_infoS1_PPv+0x24>
 80013e2:	67e2                	ld	a5,24(sp)
 80013e4:	639c                	ld	a5,0(a5)
 80013e6:	ec3e                	sd	a5,24(sp)
 80013e8:	609c                	ld	a5,0(s1)
 80013ea:	4685                	li	a3,1
 80013ec:	0830                	addi	a2,sp,24
 80013ee:	739c                	ld	a5,32(a5)
 80013f0:	8526                	mv	a0,s1
 80013f2:	9782                	jalr	a5
 80013f4:	c119                	beqz	a0,80013fa <_ZL16get_adjusted_ptrPKSt9type_infoS1_PPv+0x36>
 80013f6:	67e2                	ld	a5,24(sp)
 80013f8:	e01c                	sd	a5,0(s0)
 80013fa:	70e2                	ld	ra,56(sp)
 80013fc:	7442                	ld	s0,48(sp)
 80013fe:	74a2                	ld	s1,40(sp)
 8001400:	6121                	addi	sp,sp,64
 8001402:	8082                	ret

0000000008001404 <_ZL28read_encoded_value_with_basehmPKhPm>:
 8001404:	7139                	addi	sp,sp,-64
 8001406:	f822                	sd	s0,48(sp)
 8001408:	f04a                	sd	s2,32(sp)
 800140a:	fc06                	sd	ra,56(sp)
 800140c:	f426                	sd	s1,40(sp)
 800140e:	ec4e                	sd	s3,24(sp)
 8001410:	05000793          	li	a5,80
 8001414:	8432                	mv	s0,a2
 8001416:	8936                	mv	s2,a3
 8001418:	02f51063          	bne	a0,a5,8001438 <_ZL28read_encoded_value_with_basehmPKhPm+0x34>
 800141c:	00760513          	addi	a0,a2,7
 8001420:	9961                	andi	a0,a0,-8
 8001422:	611c                	ld	a5,0(a0)
 8001424:	0521                	addi	a0,a0,8
 8001426:	70e2                	ld	ra,56(sp)
 8001428:	7442                	ld	s0,48(sp)
 800142a:	00f93023          	sd	a5,0(s2)
 800142e:	74a2                	ld	s1,40(sp)
 8001430:	7902                	ld	s2,32(sp)
 8001432:	69e2                	ld	s3,24(sp)
 8001434:	6121                	addi	sp,sp,64
 8001436:	8082                	ret
 8001438:	00f57793          	andi	a5,a0,15
 800143c:	4731                	li	a4,12
 800143e:	89aa                	mv	s3,a0
 8001440:	0ef76c63          	bltu	a4,a5,8001538 <_ZL28read_encoded_value_with_basehmPKhPm+0x134>
 8001444:	00011717          	auipc	a4,0x11
 8001448:	24870713          	addi	a4,a4,584 # 801268c <__clzdi2+0x62>
 800144c:	078a                	slli	a5,a5,0x2
 800144e:	97ba                	add	a5,a5,a4
 8001450:	439c                	lw	a5,0(a5)
 8001452:	84ae                	mv	s1,a1
 8001454:	97ba                	add	a5,a5,a4
 8001456:	8782                	jr	a5
 8001458:	002c                	addi	a1,sp,8
 800145a:	8532                	mv	a0,a2
 800145c:	f07ff0ef          	jal	8001362 <_ZL12read_uleb128PKhPm>
 8001460:	67a2                	ld	a5,8(sp)
 8001462:	d3f1                	beqz	a5,8001426 <_ZL28read_encoded_value_with_basehmPKhPm+0x22>
 8001464:	0709f713          	andi	a4,s3,112
 8001468:	46c1                	li	a3,16
 800146a:	00d71363          	bne	a4,a3,8001470 <_ZL28read_encoded_value_with_basehmPKhPm+0x6c>
 800146e:	84a2                	mv	s1,s0
 8001470:	0189999b          	slliw	s3,s3,0x18
 8001474:	4189d99b          	sraiw	s3,s3,0x18
 8001478:	97a6                	add	a5,a5,s1
 800147a:	fa09d6e3          	bgez	s3,8001426 <_ZL28read_encoded_value_with_basehmPKhPm+0x22>
 800147e:	639c                	ld	a5,0(a5)
 8001480:	b75d                	j	8001426 <_ZL28read_encoded_value_with_basehmPKhPm+0x22>
 8001482:	002c                	addi	a1,sp,8
 8001484:	8532                	mv	a0,a2
 8001486:	f03ff0ef          	jal	8001388 <_ZL12read_sleb128PKhPl>
 800148a:	bfd9                	j	8001460 <_ZL28read_encoded_value_with_basehmPKhPm+0x5c>
 800148c:	00164783          	lbu	a5,1(a2)
 8001490:	00064703          	lbu	a4,0(a2)
 8001494:	07a2                	slli	a5,a5,0x8
 8001496:	8fd9                	or	a5,a5,a4
 8001498:	00240513          	addi	a0,s0,2
 800149c:	b7d9                	j	8001462 <_ZL28read_encoded_value_with_basehmPKhPm+0x5e>
 800149e:	00164783          	lbu	a5,1(a2)
 80014a2:	00064703          	lbu	a4,0(a2)
 80014a6:	07a2                	slli	a5,a5,0x8
 80014a8:	8fd9                	or	a5,a5,a4
 80014aa:	00264703          	lbu	a4,2(a2)
 80014ae:	0742                	slli	a4,a4,0x10
 80014b0:	8f5d                	or	a4,a4,a5
 80014b2:	00364783          	lbu	a5,3(a2)
 80014b6:	07e2                	slli	a5,a5,0x18
 80014b8:	8fd9                	or	a5,a5,a4
 80014ba:	00440513          	addi	a0,s0,4
 80014be:	b755                	j	8001462 <_ZL28read_encoded_value_with_basehmPKhPm+0x5e>
 80014c0:	00164783          	lbu	a5,1(a2)
 80014c4:	00064703          	lbu	a4,0(a2)
 80014c8:	07a2                	slli	a5,a5,0x8
 80014ca:	8fd9                	or	a5,a5,a4
 80014cc:	0107979b          	slliw	a5,a5,0x10
 80014d0:	4107d79b          	sraiw	a5,a5,0x10
 80014d4:	b7d1                	j	8001498 <_ZL28read_encoded_value_with_basehmPKhPm+0x94>
 80014d6:	00164783          	lbu	a5,1(a2)
 80014da:	00064703          	lbu	a4,0(a2)
 80014de:	07a2                	slli	a5,a5,0x8
 80014e0:	8fd9                	or	a5,a5,a4
 80014e2:	00264703          	lbu	a4,2(a2)
 80014e6:	0742                	slli	a4,a4,0x10
 80014e8:	8f5d                	or	a4,a4,a5
 80014ea:	00364783          	lbu	a5,3(a2)
 80014ee:	07e2                	slli	a5,a5,0x18
 80014f0:	8fd9                	or	a5,a5,a4
 80014f2:	2781                	sext.w	a5,a5
 80014f4:	b7d9                	j	80014ba <_ZL28read_encoded_value_with_basehmPKhPm+0xb6>
 80014f6:	00164783          	lbu	a5,1(a2)
 80014fa:	00064703          	lbu	a4,0(a2)
 80014fe:	00860513          	addi	a0,a2,8
 8001502:	07a2                	slli	a5,a5,0x8
 8001504:	8fd9                	or	a5,a5,a4
 8001506:	00264703          	lbu	a4,2(a2)
 800150a:	0742                	slli	a4,a4,0x10
 800150c:	8f5d                	or	a4,a4,a5
 800150e:	00364783          	lbu	a5,3(a2)
 8001512:	07e2                	slli	a5,a5,0x18
 8001514:	8fd9                	or	a5,a5,a4
 8001516:	00464703          	lbu	a4,4(a2)
 800151a:	1702                	slli	a4,a4,0x20
 800151c:	8f5d                	or	a4,a4,a5
 800151e:	00564783          	lbu	a5,5(a2)
 8001522:	17a2                	slli	a5,a5,0x28
 8001524:	8fd9                	or	a5,a5,a4
 8001526:	00664703          	lbu	a4,6(a2)
 800152a:	1742                	slli	a4,a4,0x30
 800152c:	8f5d                	or	a4,a4,a5
 800152e:	00764783          	lbu	a5,7(a2)
 8001532:	17e2                	slli	a5,a5,0x38
 8001534:	8fd9                	or	a5,a5,a4
 8001536:	b735                	j	8001462 <_ZL28read_encoded_value_with_basehmPKhPm+0x5e>
 8001538:	2c5080ef          	jal	8009ffc <abort>

000000000800153c <_ZL15get_ttype_entryP16lsda_header_infom>:
 800153c:	1101                	addi	sp,sp,-32
 800153e:	ec06                	sd	ra,24(sp)
 8001540:	87aa                	mv	a5,a0
 8001542:	02854503          	lbu	a0,40(a0)
 8001546:	0ff00713          	li	a4,255
 800154a:	04e50263          	beq	a0,a4,800158e <_ZL15get_ttype_entryP16lsda_header_infom+0x52>
 800154e:	00757713          	andi	a4,a0,7
 8001552:	4689                	li	a3,2
 8001554:	02d70f63          	beq	a4,a3,8001592 <_ZL15get_ttype_entryP16lsda_header_infom+0x56>
 8001558:	00e6e663          	bltu	a3,a4,8001564 <_ZL15get_ttype_entryP16lsda_header_infom+0x28>
 800155c:	4621                	li	a2,8
 800155e:	cb19                	beqz	a4,8001574 <_ZL15get_ttype_entryP16lsda_header_infom+0x38>
 8001560:	29d080ef          	jal	8009ffc <abort>
 8001564:	468d                	li	a3,3
 8001566:	4611                	li	a2,4
 8001568:	00d70663          	beq	a4,a3,8001574 <_ZL15get_ttype_entryP16lsda_header_infom+0x38>
 800156c:	4691                	li	a3,4
 800156e:	4621                	li	a2,8
 8001570:	fed718e3          	bne	a4,a3,8001560 <_ZL15get_ttype_entryP16lsda_header_infom+0x24>
 8001574:	02b60633          	mul	a2,a2,a1
 8001578:	6f98                	ld	a4,24(a5)
 800157a:	6b8c                	ld	a1,16(a5)
 800157c:	0034                	addi	a3,sp,8
 800157e:	40c70633          	sub	a2,a4,a2
 8001582:	e83ff0ef          	jal	8001404 <_ZL28read_encoded_value_with_basehmPKhPm>
 8001586:	60e2                	ld	ra,24(sp)
 8001588:	6522                	ld	a0,8(sp)
 800158a:	6105                	addi	sp,sp,32
 800158c:	8082                	ret
 800158e:	4601                	li	a2,0
 8001590:	b7d5                	j	8001574 <_ZL15get_ttype_entryP16lsda_header_infom+0x38>
 8001592:	4609                	li	a2,2
 8001594:	b7c5                	j	8001574 <_ZL15get_ttype_entryP16lsda_header_infom+0x38>

0000000008001596 <_ZL20check_exception_specP16lsda_header_infoPKSt9type_infoPvl>:
 8001596:	7139                	addi	sp,sp,-64
 8001598:	f822                	sd	s0,48(sp)
 800159a:	6d00                	ld	s0,24(a0)
 800159c:	fff6c693          	not	a3,a3
 80015a0:	f426                	sd	s1,40(sp)
 80015a2:	f04a                	sd	s2,32(sp)
 80015a4:	fc06                	sd	ra,56(sp)
 80015a6:	84aa                	mv	s1,a0
 80015a8:	892e                	mv	s2,a1
 80015aa:	e432                	sd	a2,8(sp)
 80015ac:	9436                	add	s0,s0,a3
 80015ae:	082c                	addi	a1,sp,24
 80015b0:	8522                	mv	a0,s0
 80015b2:	db1ff0ef          	jal	8001362 <_ZL12read_uleb128PKhPm>
 80015b6:	65e2                	ld	a1,24(sp)
 80015b8:	842a                	mv	s0,a0
 80015ba:	cd99                	beqz	a1,80015d8 <_ZL20check_exception_specP16lsda_header_infoPKSt9type_infoPvl+0x42>
 80015bc:	8526                	mv	a0,s1
 80015be:	f7fff0ef          	jal	800153c <_ZL15get_ttype_entryP16lsda_header_infom>
 80015c2:	0030                	addi	a2,sp,8
 80015c4:	85ca                	mv	a1,s2
 80015c6:	dffff0ef          	jal	80013c4 <_ZL16get_adjusted_ptrPKSt9type_infoS1_PPv>
 80015ca:	d175                	beqz	a0,80015ae <_ZL20check_exception_specP16lsda_header_infoPKSt9type_infoPvl+0x18>
 80015cc:	70e2                	ld	ra,56(sp)
 80015ce:	7442                	ld	s0,48(sp)
 80015d0:	74a2                	ld	s1,40(sp)
 80015d2:	7902                	ld	s2,32(sp)
 80015d4:	6121                	addi	sp,sp,64
 80015d6:	8082                	ret
 80015d8:	4501                	li	a0,0
 80015da:	bfcd                	j	80015cc <_ZL20check_exception_specP16lsda_header_infoPKSt9type_infoPvl+0x36>

00000000080015dc <_ZL21base_of_encoded_valuehP15_Unwind_Context>:
 80015dc:	0ff00713          	li	a4,255
 80015e0:	87aa                	mv	a5,a0
 80015e2:	02e50d63          	beq	a0,a4,800161c <_ZL21base_of_encoded_valuehP15_Unwind_Context+0x40>
 80015e6:	0707f793          	andi	a5,a5,112
 80015ea:	03000713          	li	a4,48
 80015ee:	852e                	mv	a0,a1
 80015f0:	02e78a63          	beq	a5,a4,8001624 <_ZL21base_of_encoded_valuehP15_Unwind_Context+0x48>
 80015f4:	00f76c63          	bltu	a4,a5,800160c <_ZL21base_of_encoded_valuehP15_Unwind_Context+0x30>
 80015f8:	02000713          	li	a4,32
 80015fc:	02e78263          	beq	a5,a4,8001620 <_ZL21base_of_encoded_valuehP15_Unwind_Context+0x44>
 8001600:	00f77e63          	bgeu	a4,a5,800161c <_ZL21base_of_encoded_valuehP15_Unwind_Context+0x40>
 8001604:	1141                	addi	sp,sp,-16
 8001606:	e406                	sd	ra,8(sp)
 8001608:	1f5080ef          	jal	8009ffc <abort>
 800160c:	04000713          	li	a4,64
 8001610:	00e78c63          	beq	a5,a4,8001628 <_ZL21base_of_encoded_valuehP15_Unwind_Context+0x4c>
 8001614:	05000713          	li	a4,80
 8001618:	fee796e3          	bne	a5,a4,8001604 <_ZL21base_of_encoded_valuehP15_Unwind_Context+0x28>
 800161c:	4501                	li	a0,0
 800161e:	8082                	ret
 8001620:	7b70606f          	j	80085d6 <_Unwind_GetTextRelBase>
 8001624:	7ad0606f          	j	80085d0 <_Unwind_GetDataRelBase>
 8001628:	78d0606f          	j	80085b4 <_Unwind_GetRegionStart>

000000000800162c <_ZL18read_encoded_valueP15_Unwind_ContexthPKhPm>:
 800162c:	1101                	addi	sp,sp,-32
 800162e:	e822                	sd	s0,16(sp)
 8001630:	842e                	mv	s0,a1
 8001632:	85aa                	mv	a1,a0
 8001634:	8522                	mv	a0,s0
 8001636:	ec06                	sd	ra,24(sp)
 8001638:	e432                	sd	a2,8(sp)
 800163a:	e036                	sd	a3,0(sp)
 800163c:	fa1ff0ef          	jal	80015dc <_ZL21base_of_encoded_valuehP15_Unwind_Context>
 8001640:	85aa                	mv	a1,a0
 8001642:	8522                	mv	a0,s0
 8001644:	6442                	ld	s0,16(sp)
 8001646:	6682                	ld	a3,0(sp)
 8001648:	6622                	ld	a2,8(sp)
 800164a:	60e2                	ld	ra,24(sp)
 800164c:	6105                	addi	sp,sp,32
 800164e:	bb5d                	j	8001404 <_ZL28read_encoded_value_with_basehmPKhPm>

0000000008001650 <_ZL17parse_lsda_headerP15_Unwind_ContextPKhP16lsda_header_info>:
 8001650:	7179                	addi	sp,sp,-48
 8001652:	f022                	sd	s0,32(sp)
 8001654:	ec26                	sd	s1,24(sp)
 8001656:	e84a                	sd	s2,16(sp)
 8001658:	f406                	sd	ra,40(sp)
 800165a:	84aa                	mv	s1,a0
 800165c:	892e                	mv	s2,a1
 800165e:	8432                	mv	s0,a2
 8001660:	4781                	li	a5,0
 8001662:	c501                	beqz	a0,800166a <_ZL17parse_lsda_headerP15_Unwind_ContextPKhP16lsda_header_info+0x1a>
 8001664:	751060ef          	jal	80085b4 <_Unwind_GetRegionStart>
 8001668:	87aa                	mv	a5,a0
 800166a:	e01c                	sd	a5,0(s0)
 800166c:	00094583          	lbu	a1,0(s2)
 8001670:	0ff00713          	li	a4,255
 8001674:	00190613          	addi	a2,s2,1
 8001678:	04e58a63          	beq	a1,a4,80016cc <_ZL17parse_lsda_headerP15_Unwind_ContextPKhP16lsda_header_info+0x7c>
 800167c:	00840693          	addi	a3,s0,8
 8001680:	8526                	mv	a0,s1
 8001682:	fabff0ef          	jal	800162c <_ZL18read_encoded_valueP15_Unwind_ContexthPKhPm>
 8001686:	862a                	mv	a2,a0
 8001688:	00064703          	lbu	a4,0(a2)
 800168c:	0ff00693          	li	a3,255
 8001690:	00160513          	addi	a0,a2,1
 8001694:	02e40423          	sb	a4,40(s0)
 8001698:	4781                	li	a5,0
 800169a:	00d70763          	beq	a4,a3,80016a8 <_ZL17parse_lsda_headerP15_Unwind_ContextPKhP16lsda_header_info+0x58>
 800169e:	002c                	addi	a1,sp,8
 80016a0:	cc3ff0ef          	jal	8001362 <_ZL12read_uleb128PKhPm>
 80016a4:	67a2                	ld	a5,8(sp)
 80016a6:	97aa                	add	a5,a5,a0
 80016a8:	ec1c                	sd	a5,24(s0)
 80016aa:	00054783          	lbu	a5,0(a0)
 80016ae:	002c                	addi	a1,sp,8
 80016b0:	0505                	addi	a0,a0,1
 80016b2:	02f404a3          	sb	a5,41(s0)
 80016b6:	cadff0ef          	jal	8001362 <_ZL12read_uleb128PKhPm>
 80016ba:	67a2                	ld	a5,8(sp)
 80016bc:	70a2                	ld	ra,40(sp)
 80016be:	64e2                	ld	s1,24(sp)
 80016c0:	97aa                	add	a5,a5,a0
 80016c2:	f01c                	sd	a5,32(s0)
 80016c4:	7402                	ld	s0,32(sp)
 80016c6:	6942                	ld	s2,16(sp)
 80016c8:	6145                	addi	sp,sp,48
 80016ca:	8082                	ret
 80016cc:	e41c                	sd	a5,8(s0)
 80016ce:	bf6d                	j	8001688 <_ZL17parse_lsda_headerP15_Unwind_ContextPKhP16lsda_header_info+0x38>

00000000080016d0 <__gxx_personality_v0>:
 80016d0:	7115                	addi	sp,sp,-224
 80016d2:	ed86                	sd	ra,216(sp)
 80016d4:	e9a2                	sd	s0,208(sp)
 80016d6:	e5a6                	sd	s1,200(sp)
 80016d8:	e1ca                	sd	s2,192(sp)
 80016da:	fd4e                	sd	s3,184(sp)
 80016dc:	f952                	sd	s4,176(sp)
 80016de:	f556                	sd	s5,168(sp)
 80016e0:	f15a                	sd	s6,160(sp)
 80016e2:	ed5e                	sd	s7,152(sp)
 80016e4:	e962                	sd	s8,144(sp)
 80016e6:	e566                	sd	s9,136(sp)
 80016e8:	e16a                	sd	s10,128(sp)
 80016ea:	fcee                	sd	s11,120(sp)
 80016ec:	e03a                	sd	a4,0(sp)
 80016ee:	ec02                	sd	zero,24(sp)
 80016f0:	ca02                	sw	zero,20(sp)
 80016f2:	4785                	li	a5,1
 80016f4:	24f51a63          	bne	a0,a5,8001948 <__gxx_personality_v0+0x278>
 80016f8:	b8b1b7b7          	lui	a5,0xb8b1b
 80016fc:	abd78793          	addi	a5,a5,-1347 # ffffffffb8b1aabd <__stack_top+0xffffffffa8b1aabd>
 8001700:	07b2                	slli	a5,a5,0xc
 8001702:	bcd78793          	addi	a5,a5,-1075
 8001706:	07b2                	slli	a5,a5,0xc
 8001708:	4d578793          	addi	a5,a5,1237
 800170c:	07a2                	slli	a5,a5,0x8
 800170e:	00f60ab3          	add	s5,a2,a5
 8001712:	4799                	li	a5,6
 8001714:	8b2e                	mv	s6,a1
 8001716:	8436                	mv	s0,a3
 8001718:	02f59a63          	bne	a1,a5,800174c <__gxx_personality_v0+0x7c>
 800171c:	03556863          	bltu	a0,s5,800174c <__gxx_personality_v0+0x7c>
 8001720:	ff06b983          	ld	s3,-16(a3)
 8001724:	fdc6a483          	lw	s1,-36(a3)
 8001728:	fe86bb83          	ld	s7,-24(a3)
 800172c:	4785                	li	a5,1
 800172e:	00098363          	beqz	s3,8001734 <__gxx_personality_v0+0x64>
 8001732:	478d                	li	a5,3
 8001734:	008b7b13          	andi	s6,s6,8
 8001738:	000b1563          	bnez	s6,8001742 <__gxx_personality_v0+0x72>
 800173c:	4705                	li	a4,1
 800173e:	1b577d63          	bgeu	a4,s5,80018f8 <__gxx_personality_v0+0x228>
 8001742:	4705                	li	a4,1
 8001744:	1ae79363          	bne	a5,a4,80018ea <__gxx_personality_v0+0x21a>
 8001748:	228000ef          	jal	8001970 <_ZSt9terminatev>
 800174c:	6502                	ld	a0,0(sp)
 800174e:	661060ef          	jal	80085ae <_Unwind_GetLanguageSpecificData>
 8001752:	8baa                	mv	s7,a0
 8001754:	e10d                	bnez	a0,8001776 <__gxx_personality_v0+0xa6>
 8001756:	4521                	li	a0,8
 8001758:	60ee                	ld	ra,216(sp)
 800175a:	644e                	ld	s0,208(sp)
 800175c:	64ae                	ld	s1,200(sp)
 800175e:	690e                	ld	s2,192(sp)
 8001760:	79ea                	ld	s3,184(sp)
 8001762:	7a4a                	ld	s4,176(sp)
 8001764:	7aaa                	ld	s5,168(sp)
 8001766:	7b0a                	ld	s6,160(sp)
 8001768:	6bea                	ld	s7,152(sp)
 800176a:	6c4a                	ld	s8,144(sp)
 800176c:	6caa                	ld	s9,136(sp)
 800176e:	6d0a                	ld	s10,128(sp)
 8001770:	7de6                	ld	s11,120(sp)
 8001772:	612d                	addi	sp,sp,224
 8001774:	8082                	ret
 8001776:	85aa                	mv	a1,a0
 8001778:	6502                	ld	a0,0(sp)
 800177a:	0090                	addi	a2,sp,64
 800177c:	ed5ff0ef          	jal	8001650 <_ZL17parse_lsda_headerP15_Unwind_ContextPKhP16lsda_header_info>
 8001780:	6582                	ld	a1,0(sp)
 8001782:	e42a                	sd	a0,8(sp)
 8001784:	06814503          	lbu	a0,104(sp)
 8001788:	e55ff0ef          	jal	80015dc <_ZL21base_of_encoded_valuehP15_Unwind_Context>
 800178c:	e8aa                	sd	a0,80(sp)
 800178e:	6502                	ld	a0,0(sp)
 8001790:	084c                	addi	a1,sp,20
 8001792:	609060ef          	jal	800859a <_Unwind_GetIPInfo>
 8001796:	47d2                	lw	a5,20(sp)
 8001798:	6622                	ld	a2,8(sp)
 800179a:	84aa                	mv	s1,a0
 800179c:	e399                	bnez	a5,80017a2 <__gxx_personality_v0+0xd2>
 800179e:	fff50493          	addi	s1,a0,-1
 80017a2:	7a06                	ld	s4,96(sp)
 80017a4:	03466c63          	bltu	a2,s4,80017dc <__gxx_personality_v0+0x10c>
 80017a8:	4481                	li	s1,0
 80017aa:	4981                	li	s3,0
 80017ac:	4a01                	li	s4,0
 80017ae:	4785                	li	a5,1
 80017b0:	001b7713          	andi	a4,s6,1
 80017b4:	d341                	beqz	a4,8001734 <__gxx_personality_v0+0x64>
 80017b6:	4709                	li	a4,2
 80017b8:	f8e78fe3          	beq	a5,a4,8001756 <__gxx_personality_v0+0x86>
 80017bc:	4785                	li	a5,1
 80017be:	0157ed63          	bltu	a5,s5,80017d8 <__gxx_personality_v0+0x108>
 80017c2:	67e2                	ld	a5,24(sp)
 80017c4:	fc942e23          	sw	s1,-36(s0)
 80017c8:	ff443023          	sd	s4,-32(s0)
 80017cc:	ff743423          	sd	s7,-24(s0)
 80017d0:	fef43c23          	sd	a5,-8(s0)
 80017d4:	ff343823          	sd	s3,-16(s0)
 80017d8:	4519                	li	a0,6
 80017da:	bfbd                	j	8001758 <__gxx_personality_v0+0x88>
 80017dc:	06914583          	lbu	a1,105(sp)
 80017e0:	1014                	addi	a3,sp,32
 80017e2:	4501                	li	a0,0
 80017e4:	e42e                	sd	a1,8(sp)
 80017e6:	e47ff0ef          	jal	800162c <_ZL18read_encoded_valueP15_Unwind_ContexthPKhPm>
 80017ea:	65a2                	ld	a1,8(sp)
 80017ec:	862a                	mv	a2,a0
 80017ee:	1034                	addi	a3,sp,40
 80017f0:	4501                	li	a0,0
 80017f2:	e3bff0ef          	jal	800162c <_ZL18read_encoded_valueP15_Unwind_ContexthPKhPm>
 80017f6:	65a2                	ld	a1,8(sp)
 80017f8:	862a                	mv	a2,a0
 80017fa:	1814                	addi	a3,sp,48
 80017fc:	4501                	li	a0,0
 80017fe:	e2fff0ef          	jal	800162c <_ZL18read_encoded_valueP15_Unwind_ContexthPKhPm>
 8001802:	182c                	addi	a1,sp,56
 8001804:	b5fff0ef          	jal	8001362 <_ZL12read_uleb128PKhPm>
 8001808:	6786                	ld	a5,64(sp)
 800180a:	7702                	ld	a4,32(sp)
 800180c:	862a                	mv	a2,a0
 800180e:	97ba                	add	a5,a5,a4
 8001810:	08f4ed63          	bltu	s1,a5,80018aa <__gxx_personality_v0+0x1da>
 8001814:	7722                	ld	a4,40(sp)
 8001816:	97ba                	add	a5,a5,a4
 8001818:	f8f4f5e3          	bgeu	s1,a5,80017a2 <__gxx_personality_v0+0xd2>
 800181c:	79c2                	ld	s3,48(sp)
 800181e:	00098463          	beqz	s3,8001826 <__gxx_personality_v0+0x156>
 8001822:	67a6                	ld	a5,72(sp)
 8001824:	99be                	add	s3,s3,a5
 8001826:	77e2                	ld	a5,56(sp)
 8001828:	cbbd                	beqz	a5,800189e <__gxx_personality_v0+0x1ce>
 800182a:	f20986e3          	beqz	s3,8001756 <__gxx_personality_v0+0x86>
 800182e:	008b7d13          	andi	s10,s6,8
 8001832:	00013c17          	auipc	s8,0x13
 8001836:	0aec0c13          	addi	s8,s8,174 # 80148e0 <_ZTIN10__cxxabiv115__forced_unwindE>
 800183a:	020d1363          	bnez	s10,8001860 <__gxx_personality_v0+0x190>
 800183e:	4705                	li	a4,1
 8001840:	00013c17          	auipc	s8,0x13
 8001844:	0d8c0c13          	addi	s8,s8,216 # 8014918 <_ZTIN10__cxxabiv119__foreign_exceptionE>
 8001848:	01576c63          	bltu	a4,s5,8001860 <__gxx_personality_v0+0x190>
 800184c:	6014                	ld	a3,0(s0)
 800184e:	02040713          	addi	a4,s0,32
 8001852:	8a85                	andi	a3,a3,1
 8001854:	c299                	beqz	a3,800185a <__gxx_personality_v0+0x18a>
 8001856:	fb043703          	ld	a4,-80(s0)
 800185a:	f9073c03          	ld	s8,-112(a4)
 800185e:	ec3a                	sd	a4,24(sp)
 8001860:	17fd                	addi	a5,a5,-1
 8001862:	9a3e                	add	s4,s4,a5
 8001864:	4c81                	li	s9,0
 8001866:	4d85                	li	s11,1
 8001868:	102c                	addi	a1,sp,40
 800186a:	8552                	mv	a0,s4
 800186c:	b1dff0ef          	jal	8001388 <_ZL12read_sleb128PKhPl>
 8001870:	180c                	addi	a1,sp,48
 8001872:	892a                	mv	s2,a0
 8001874:	b15ff0ef          	jal	8001388 <_ZL12read_sleb128PKhPl>
 8001878:	74a2                	ld	s1,40(sp)
 800187a:	c4b5                	beqz	s1,80018e6 <__gxx_personality_v0+0x216>
 800187c:	02905963          	blez	s1,80018ae <__gxx_personality_v0+0x1de>
 8001880:	85a6                	mv	a1,s1
 8001882:	0088                	addi	a0,sp,64
 8001884:	cb9ff0ef          	jal	800153c <_ZL15get_ttype_entryP16lsda_header_infom>
 8001888:	c901                	beqz	a0,8001898 <__gxx_personality_v0+0x1c8>
 800188a:	020c0f63          	beqz	s8,80018c8 <__gxx_personality_v0+0x1f8>
 800188e:	0830                	addi	a2,sp,24
 8001890:	85e2                	mv	a1,s8
 8001892:	b33ff0ef          	jal	80013c4 <_ZL16get_adjusted_ptrPKSt9type_infoS1_PPv>
 8001896:	c90d                	beqz	a0,80018c8 <__gxx_personality_v0+0x1f8>
 8001898:	2481                	sext.w	s1,s1
 800189a:	478d                	li	a5,3
 800189c:	bf11                	j	80017b0 <__gxx_personality_v0+0xe0>
 800189e:	ea098ce3          	beqz	s3,8001756 <__gxx_personality_v0+0x86>
 80018a2:	4481                	li	s1,0
 80018a4:	4a01                	li	s4,0
 80018a6:	4789                	li	a5,2
 80018a8:	b721                	j	80017b0 <__gxx_personality_v0+0xe0>
 80018aa:	8652                	mv	a2,s4
 80018ac:	bddd                	j	80017a2 <__gxx_personality_v0+0xd2>
 80018ae:	020c0263          	beqz	s8,80018d2 <__gxx_personality_v0+0x202>
 80018b2:	020d1063          	bnez	s10,80018d2 <__gxx_personality_v0+0x202>
 80018b6:	015dee63          	bltu	s11,s5,80018d2 <__gxx_personality_v0+0x202>
 80018ba:	6662                	ld	a2,24(sp)
 80018bc:	86a6                	mv	a3,s1
 80018be:	85e2                	mv	a1,s8
 80018c0:	0088                	addi	a0,sp,64
 80018c2:	cd5ff0ef          	jal	8001596 <_ZL20check_exception_specP16lsda_header_infoPKSt9type_infoPvl>
 80018c6:	d969                	beqz	a0,8001898 <__gxx_personality_v0+0x1c8>
 80018c8:	77c2                	ld	a5,48(sp)
 80018ca:	c3c9                	beqz	a5,800194c <__gxx_personality_v0+0x27c>
 80018cc:	00f90a33          	add	s4,s2,a5
 80018d0:	bf61                	j	8001868 <__gxx_personality_v0+0x198>
 80018d2:	67e6                	ld	a5,88(sp)
 80018d4:	fff4c513          	not	a0,s1
 80018d8:	182c                	addi	a1,sp,56
 80018da:	953e                	add	a0,a0,a5
 80018dc:	a87ff0ef          	jal	8001362 <_ZL12read_uleb128PKhPm>
 80018e0:	77e2                	ld	a5,56(sp)
 80018e2:	f3fd                	bnez	a5,80018c8 <__gxx_personality_v0+0x1f8>
 80018e4:	bf55                	j	8001898 <__gxx_personality_v0+0x1c8>
 80018e6:	4c85                	li	s9,1
 80018e8:	b7c5                	j	80018c8 <__gxx_personality_v0+0x1f8>
 80018ea:	0204df63          	bgez	s1,8001928 <__gxx_personality_v0+0x258>
 80018ee:	0a2000ef          	jal	8001990 <_ZSt10unexpectedv>
 80018f2:	98fff0ef          	jal	8001280 <__cxa_begin_catch>
 80018f6:	bd89                	j	8001748 <__gxx_personality_v0+0x78>
 80018f8:	00e79563          	bne	a5,a4,8001902 <__gxx_personality_v0+0x232>
 80018fc:	8522                	mv	a0,s0
 80018fe:	3a1040ef          	jal	800649e <__cxa_call_terminate>
 8001902:	0204d363          	bgez	s1,8001928 <__gxx_personality_v0+0x258>
 8001906:	6502                	ld	a0,0(sp)
 8001908:	0090                	addi	a2,sp,64
 800190a:	85de                	mv	a1,s7
 800190c:	d45ff0ef          	jal	8001650 <_ZL17parse_lsda_headerP15_Unwind_ContextPKhP16lsda_header_info>
 8001910:	06814a03          	lbu	s4,104(sp)
 8001914:	6582                	ld	a1,0(sp)
 8001916:	8552                	mv	a0,s4
 8001918:	cc5ff0ef          	jal	80015dc <_ZL21base_of_encoded_valuehP15_Unwind_Context>
 800191c:	6582                	ld	a1,0(sp)
 800191e:	8552                	mv	a0,s4
 8001920:	cbdff0ef          	jal	80015dc <_ZL21base_of_encoded_valuehP15_Unwind_Context>
 8001924:	fea43823          	sd	a0,-16(s0)
 8001928:	6502                	ld	a0,0(sp)
 800192a:	8622                	mv	a2,s0
 800192c:	45a9                	li	a1,10
 800192e:	413060ef          	jal	8008540 <_Unwind_SetGR>
 8001932:	6502                	ld	a0,0(sp)
 8001934:	8626                	mv	a2,s1
 8001936:	45ad                	li	a1,11
 8001938:	409060ef          	jal	8008540 <_Unwind_SetGR>
 800193c:	6502                	ld	a0,0(sp)
 800193e:	85ce                	mv	a1,s3
 8001940:	469060ef          	jal	80085a8 <_Unwind_SetIP>
 8001944:	451d                	li	a0,7
 8001946:	bd09                	j	8001758 <__gxx_personality_v0+0x88>
 8001948:	450d                	li	a0,3
 800194a:	b539                	j	8001758 <__gxx_personality_v0+0x88>
 800194c:	e00c85e3          	beqz	s9,8001756 <__gxx_personality_v0+0x86>
 8001950:	4481                	li	s1,0
 8001952:	bf91                	j	80018a6 <__gxx_personality_v0+0x1d6>

0000000008001954 <_ZN10__cxxabiv111__terminateEPFvvE>:
 8001954:	1141                	addi	sp,sp,-16
 8001956:	e406                	sd	ra,8(sp)
 8001958:	9502                	jalr	a0
 800195a:	6a2080ef          	jal	8009ffc <abort>
 800195e:	923ff0ef          	jal	8001280 <__cxa_begin_catch>
 8001962:	69a080ef          	jal	8009ffc <abort>

0000000008001966 <_ZSt13get_terminatev>:
 8001966:	3c01b503          	ld	a0,960(gp) # 80184a0 <_ZN10__cxxabiv119__terminate_handlerE>
 800196a:	0ff0000f          	fence
 800196e:	8082                	ret

0000000008001970 <_ZSt9terminatev>:
 8001970:	1141                	addi	sp,sp,-16
 8001972:	e406                	sd	ra,8(sp)
 8001974:	ff3ff0ef          	jal	8001966 <_ZSt13get_terminatev>
 8001978:	fddff0ef          	jal	8001954 <_ZN10__cxxabiv111__terminateEPFvvE>

000000000800197c <_ZN10__cxxabiv112__unexpectedEPFvvE>:
 800197c:	1141                	addi	sp,sp,-16
 800197e:	e406                	sd	ra,8(sp)
 8001980:	9502                	jalr	a0
 8001982:	fefff0ef          	jal	8001970 <_ZSt9terminatev>

0000000008001986 <_ZSt14get_unexpectedv>:
 8001986:	3b01b503          	ld	a0,944(gp) # 8018490 <_ZN10__cxxabiv120__unexpected_handlerE>
 800198a:	0ff0000f          	fence
 800198e:	8082                	ret

0000000008001990 <_ZSt10unexpectedv>:
 8001990:	1141                	addi	sp,sp,-16
 8001992:	e406                	sd	ra,8(sp)
 8001994:	ff3ff0ef          	jal	8001986 <_ZSt14get_unexpectedv>
 8001998:	fe5ff0ef          	jal	800197c <_ZN10__cxxabiv112__unexpectedEPFvvE>

000000000800199c <_ZL23__gxx_exception_cleanup19_Unwind_Reason_CodeP17_Unwind_Exception>:
 800199c:	1101                	addi	sp,sp,-32
 800199e:	ec06                	sd	ra,24(sp)
 80019a0:	4785                	li	a5,1
 80019a2:	00a7f663          	bgeu	a5,a0,80019ae <_ZL23__gxx_exception_cleanup19_Unwind_Reason_CodeP17_Unwind_Exception+0x12>
 80019a6:	fc85b503          	ld	a0,-56(a1)
 80019aa:	fabff0ef          	jal	8001954 <_ZN10__cxxabiv111__terminateEPFvvE>
 80019ae:	577d                	li	a4,-1
 80019b0:	fa058693          	addi	a3,a1,-96
 80019b4:	0f50000f          	fence	iorw,ow
 80019b8:	04e6a7af          	amoadd.w.aq	a5,a4,(a3)
 80019bc:	37fd                	addiw	a5,a5,-1
 80019be:	ef89                	bnez	a5,80019d8 <_ZL23__gxx_exception_cleanup19_Unwind_Reason_CodeP17_Unwind_Exception+0x3c>
 80019c0:	fb85b783          	ld	a5,-72(a1)
 80019c4:	02058513          	addi	a0,a1,32
 80019c8:	c781                	beqz	a5,80019d0 <_ZL23__gxx_exception_cleanup19_Unwind_Reason_CodeP17_Unwind_Exception+0x34>
 80019ca:	e42a                	sd	a0,8(sp)
 80019cc:	9782                	jalr	a5
 80019ce:	6522                	ld	a0,8(sp)
 80019d0:	60e2                	ld	ra,24(sp)
 80019d2:	6105                	addi	sp,sp,32
 80019d4:	23f0406f          	j	8006412 <__cxa_free_exception>
 80019d8:	60e2                	ld	ra,24(sp)
 80019da:	6105                	addi	sp,sp,32
 80019dc:	8082                	ret

00000000080019de <__cxa_init_primary_exception>:
 80019de:	1141                	addi	sp,sp,-16
 80019e0:	e406                	sd	ra,8(sp)
 80019e2:	e022                	sd	s0,0(sp)
 80019e4:	f8b53823          	sd	a1,-112(a0)
 80019e8:	f8c53c23          	sd	a2,-104(a0)
 80019ec:	f8052023          	sw	zero,-128(a0)
 80019f0:	842a                	mv	s0,a0
 80019f2:	f95ff0ef          	jal	8001986 <_ZSt14get_unexpectedv>
 80019f6:	faa43023          	sd	a0,-96(s0)
 80019fa:	f6dff0ef          	jal	8001966 <_ZSt13get_terminatev>
 80019fe:	00017797          	auipc	a5,0x17
 8001a02:	a0a7b783          	ld	a5,-1526(a5) # 8018408 <__SDATA_BEGIN__>
 8001a06:	fef43023          	sd	a5,-32(s0)
 8001a0a:	00000797          	auipc	a5,0x0
 8001a0e:	f9278793          	addi	a5,a5,-110 # 800199c <_ZL23__gxx_exception_cleanup19_Unwind_Reason_CodeP17_Unwind_Exception>
 8001a12:	faa43423          	sd	a0,-88(s0)
 8001a16:	60a2                	ld	ra,8(sp)
 8001a18:	fef43423          	sd	a5,-24(s0)
 8001a1c:	f8040513          	addi	a0,s0,-128
 8001a20:	6402                	ld	s0,0(sp)
 8001a22:	0141                	addi	sp,sp,16
 8001a24:	8082                	ret

0000000008001a26 <__cxa_throw>:
 8001a26:	1101                	addi	sp,sp,-32
 8001a28:	ec06                	sd	ra,24(sp)
 8001a2a:	e822                	sd	s0,16(sp)
 8001a2c:	e42e                	sd	a1,8(sp)
 8001a2e:	842a                	mv	s0,a0
 8001a30:	e032                	sd	a2,0(sp)
 8001a32:	92bff0ef          	jal	800135c <__cxa_get_globals>
 8001a36:	451c                	lw	a5,8(a0)
 8001a38:	6602                	ld	a2,0(sp)
 8001a3a:	65a2                	ld	a1,8(sp)
 8001a3c:	2785                	addiw	a5,a5,1
 8001a3e:	c51c                	sw	a5,8(a0)
 8001a40:	8522                	mv	a0,s0
 8001a42:	f9dff0ef          	jal	80019de <__cxa_init_primary_exception>
 8001a46:	4785                	li	a5,1
 8001a48:	06050413          	addi	s0,a0,96
 8001a4c:	c11c                	sw	a5,0(a0)
 8001a4e:	8522                	mv	a0,s0
 8001a50:	485060ef          	jal	80086d4 <_Unwind_RaiseException>
 8001a54:	8522                	mv	a0,s0
 8001a56:	82bff0ef          	jal	8001280 <__cxa_begin_catch>
 8001a5a:	f17ff0ef          	jal	8001970 <_ZSt9terminatev>

0000000008001a5e <__cxa_rethrow>:
 8001a5e:	1141                	addi	sp,sp,-16
 8001a60:	e406                	sd	ra,8(sp)
 8001a62:	e022                	sd	s0,0(sp)
 8001a64:	8f9ff0ef          	jal	800135c <__cxa_get_globals>
 8001a68:	451c                	lw	a5,8(a0)
 8001a6a:	6118                	ld	a4,0(a0)
 8001a6c:	2785                	addiw	a5,a5,1
 8001a6e:	c51c                	sw	a5,8(a0)
 8001a70:	cb1d                	beqz	a4,8001aa6 <__cxa_rethrow+0x48>
 8001a72:	b8b1b7b7          	lui	a5,0xb8b1b
 8001a76:	abd78793          	addi	a5,a5,-1347 # ffffffffb8b1aabd <__stack_top+0xffffffffa8b1aabd>
 8001a7a:	07b2                	slli	a5,a5,0xc
 8001a7c:	bcd78793          	addi	a5,a5,-1075
 8001a80:	6b34                	ld	a3,80(a4)
 8001a82:	07b2                	slli	a5,a5,0xc
 8001a84:	4d578793          	addi	a5,a5,1237
 8001a88:	07a2                	slli	a5,a5,0x8
 8001a8a:	97b6                	add	a5,a5,a3
 8001a8c:	4685                	li	a3,1
 8001a8e:	00f6fe63          	bgeu	a3,a5,8001aaa <__cxa_rethrow+0x4c>
 8001a92:	00053023          	sd	zero,0(a0)
 8001a96:	05070413          	addi	s0,a4,80
 8001a9a:	8522                	mv	a0,s0
 8001a9c:	2ae070ef          	jal	8008d4a <_Unwind_Resume_or_Rethrow>
 8001aa0:	8522                	mv	a0,s0
 8001aa2:	fdeff0ef          	jal	8001280 <__cxa_begin_catch>
 8001aa6:	ecbff0ef          	jal	8001970 <_ZSt9terminatev>
 8001aaa:	571c                	lw	a5,40(a4)
 8001aac:	40f007bb          	negw	a5,a5
 8001ab0:	d71c                	sw	a5,40(a4)
 8001ab2:	b7d5                	j	8001a96 <__cxa_rethrow+0x38>

0000000008001ab4 <_Znwm>:
 8001ab4:	1141                	addi	sp,sp,-16
 8001ab6:	e022                	sd	s0,0(sp)
 8001ab8:	e406                	sd	ra,8(sp)
 8001aba:	842a                	mv	s0,a0
 8001abc:	e111                	bnez	a0,8001ac0 <_Znwm+0xc>
 8001abe:	4405                	li	s0,1
 8001ac0:	8522                	mv	a0,s0
 8001ac2:	61c080ef          	jal	800a0de <malloc>
 8001ac6:	c509                	beqz	a0,8001ad0 <_Znwm+0x1c>
 8001ac8:	60a2                	ld	ra,8(sp)
 8001aca:	6402                	ld	s0,0(sp)
 8001acc:	0141                	addi	sp,sp,16
 8001ace:	8082                	ret
 8001ad0:	22b040ef          	jal	80064fa <_ZSt15get_new_handlerv>
 8001ad4:	e11d                	bnez	a0,8001afa <_Znwm+0x46>
 8001ad6:	4521                	li	a0,8
 8001ad8:	101040ef          	jal	80063d8 <__cxa_allocate_exception>
 8001adc:	00012797          	auipc	a5,0x12
 8001ae0:	c2478793          	addi	a5,a5,-988 # 8013700 <_ZTVSt9bad_alloc+0x10>
 8001ae4:	e11c                	sd	a5,0(a0)
 8001ae6:	00000617          	auipc	a2,0x0
 8001aea:	31c60613          	addi	a2,a2,796 # 8001e02 <_ZNSt9bad_allocD1Ev>
 8001aee:	00012597          	auipc	a1,0x12
 8001af2:	bea58593          	addi	a1,a1,-1046 # 80136d8 <_ZTISt9bad_alloc>
 8001af6:	f31ff0ef          	jal	8001a26 <__cxa_throw>
 8001afa:	9502                	jalr	a0
 8001afc:	b7d1                	j	8001ac0 <_Znwm+0xc>

0000000008001afe <_ZN9__gnu_cxx27__verbose_terminate_handlerEv>:
 8001afe:	3e818793          	addi	a5,gp,1000 # 80184c8 <_ZZN9__gnu_cxx27__verbose_terminate_handlerEvE11terminating>
 8001b02:	0007c703          	lbu	a4,0(a5)
 8001b06:	7139                	addi	sp,sp,-64
 8001b08:	f822                	sd	s0,48(sp)
 8001b0a:	fc06                	sd	ra,56(sp)
 8001b0c:	f426                	sd	s1,40(sp)
 8001b0e:	f04a                	sd	s2,32(sp)
 8001b10:	3d818413          	addi	s0,gp,984 # 80184b8 <_impure_ptr>
 8001b14:	cb19                	beqz	a4,8001b2a <_ZN9__gnu_cxx27__verbose_terminate_handlerEv+0x2c>
 8001b16:	601c                	ld	a5,0(s0)
 8001b18:	00011517          	auipc	a0,0x11
 8001b1c:	ba850513          	addi	a0,a0,-1112 # 80126c0 <__clzdi2+0x96>
 8001b20:	6f8c                	ld	a1,24(a5)
 8001b22:	212090ef          	jal	800ad34 <fputs>
 8001b26:	4d6080ef          	jal	8009ffc <abort>
 8001b2a:	4705                	li	a4,1
 8001b2c:	00e78023          	sb	a4,0(a5)
 8001b30:	1ab040ef          	jal	80064da <__cxa_current_exception_type>
 8001b34:	c159                	beqz	a0,8001bba <_ZN9__gnu_cxx27__verbose_terminate_handlerEv+0xbc>
 8001b36:	6504                	ld	s1,8(a0)
 8001b38:	02a00793          	li	a5,42
 8001b3c:	0004c703          	lbu	a4,0(s1)
 8001b40:	00f71363          	bne	a4,a5,8001b46 <_ZN9__gnu_cxx27__verbose_terminate_handlerEv+0x48>
 8001b44:	0485                	addi	s1,s1,1
 8001b46:	57fd                	li	a5,-1
 8001b48:	0874                	addi	a3,sp,28
 8001b4a:	4601                	li	a2,0
 8001b4c:	4581                	li	a1,0
 8001b4e:	8526                	mv	a0,s1
 8001b50:	ce3e                	sw	a5,28(sp)
 8001b52:	6ee040ef          	jal	8006240 <__cxa_demangle>
 8001b56:	601c                	ld	a5,0(s0)
 8001b58:	892a                	mv	s2,a0
 8001b5a:	00011517          	auipc	a0,0x11
 8001b5e:	b8650513          	addi	a0,a0,-1146 # 80126e0 <__clzdi2+0xb6>
 8001b62:	6f8c                	ld	a1,24(a5)
 8001b64:	1d0090ef          	jal	800ad34 <fputs>
 8001b68:	601c                	ld	a5,0(s0)
 8001b6a:	4772                	lw	a4,28(sp)
 8001b6c:	854a                	mv	a0,s2
 8001b6e:	6f8c                	ld	a1,24(a5)
 8001b70:	c311                	beqz	a4,8001b74 <_ZN9__gnu_cxx27__verbose_terminate_handlerEv+0x76>
 8001b72:	8526                	mv	a0,s1
 8001b74:	1c0090ef          	jal	800ad34 <fputs>
 8001b78:	601c                	ld	a5,0(s0)
 8001b7a:	00011517          	auipc	a0,0x11
 8001b7e:	b9e50513          	addi	a0,a0,-1122 # 8012718 <__clzdi2+0xee>
 8001b82:	6f8c                	ld	a1,24(a5)
 8001b84:	1b0090ef          	jal	800ad34 <fputs>
 8001b88:	47f2                	lw	a5,28(sp)
 8001b8a:	e781                	bnez	a5,8001b92 <_ZN9__gnu_cxx27__verbose_terminate_handlerEv+0x94>
 8001b8c:	854a                	mv	a0,s2
 8001b8e:	558080ef          	jal	800a0e6 <free>
 8001b92:	ecdff0ef          	jal	8001a5e <__cxa_rethrow>
 8001b96:	4785                	li	a5,1
 8001b98:	04f59563          	bne	a1,a5,8001be2 <_ZN9__gnu_cxx27__verbose_terminate_handlerEv+0xe4>
 8001b9c:	ee4ff0ef          	jal	8001280 <__cxa_begin_catch>
 8001ba0:	611c                	ld	a5,0(a0)
 8001ba2:	6b9c                	ld	a5,16(a5)
 8001ba4:	9782                	jalr	a5
 8001ba6:	601c                	ld	a5,0(s0)
 8001ba8:	84aa                	mv	s1,a0
 8001baa:	00011517          	auipc	a0,0x11
 8001bae:	ba650513          	addi	a0,a0,-1114 # 8012750 <__clzdi2+0x126>
 8001bb2:	6f8c                	ld	a1,24(a5)
 8001bb4:	180090ef          	jal	800ad34 <fputs>
 8001bb8:	a801                	j	8001bc8 <_ZN9__gnu_cxx27__verbose_terminate_handlerEv+0xca>
 8001bba:	601c                	ld	a5,0(s0)
 8001bbc:	00011517          	auipc	a0,0x11
 8001bc0:	b6450513          	addi	a0,a0,-1180 # 8012720 <__clzdi2+0xf6>
 8001bc4:	6f8c                	ld	a1,24(a5)
 8001bc6:	bfb1                	j	8001b22 <_ZN9__gnu_cxx27__verbose_terminate_handlerEv+0x24>
 8001bc8:	601c                	ld	a5,0(s0)
 8001bca:	8526                	mv	a0,s1
 8001bcc:	6f8c                	ld	a1,24(a5)
 8001bce:	166090ef          	jal	800ad34 <fputs>
 8001bd2:	601c                	ld	a5,0(s0)
 8001bd4:	4529                	li	a0,10
 8001bd6:	6f8c                	ld	a1,24(a5)
 8001bd8:	0b8090ef          	jal	800ac90 <fputc>
 8001bdc:	f14ff0ef          	jal	80012f0 <__cxa_end_catch>
 8001be0:	b799                	j	8001b26 <_ZN9__gnu_cxx27__verbose_terminate_handlerEv+0x28>
 8001be2:	e9eff0ef          	jal	8001280 <__cxa_begin_catch>
 8001be6:	f0aff0ef          	jal	80012f0 <__cxa_end_catch>
 8001bea:	bf35                	j	8001b26 <_ZN9__gnu_cxx27__verbose_terminate_handlerEv+0x28>
 8001bec:	e42a                	sd	a0,8(sp)
 8001bee:	f02ff0ef          	jal	80012f0 <__cxa_end_catch>
 8001bf2:	6522                	ld	a0,8(sp)
 8001bf4:	793060ef          	jal	8008b86 <_Unwind_Resume>

0000000008001bf8 <_ZSt24__throw_out_of_range_fmtPKcz>:
 8001bf8:	7159                	addi	sp,sp,-112
 8001bfa:	f406                	sd	ra,40(sp)
 8001bfc:	f022                	sd	s0,32(sp)
 8001bfe:	ec26                	sd	s1,24(sp)
 8001c00:	1800                	addi	s0,sp,48
 8001c02:	e84a                	sd	s2,16(sp)
 8001c04:	84aa                	mv	s1,a0
 8001c06:	f018                	sd	a4,32(s0)
 8001c08:	03043823          	sd	a6,48(s0)
 8001c0c:	03143c23          	sd	a7,56(s0)
 8001c10:	e40c                	sd	a1,8(s0)
 8001c12:	e810                	sd	a2,16(s0)
 8001c14:	ec14                	sd	a3,24(s0)
 8001c16:	f41c                	sd	a5,40(s0)
 8001c18:	563090ef          	jal	800b97a <strlen>
 8001c1c:	20f50793          	addi	a5,a0,527
 8001c20:	9bc1                	andi	a5,a5,-16
 8001c22:	40f10133          	sub	sp,sp,a5
 8001c26:	890a                	mv	s2,sp
 8001c28:	20050593          	addi	a1,a0,512
 8001c2c:	00840693          	addi	a3,s0,8
 8001c30:	8626                	mv	a2,s1
 8001c32:	854a                	mv	a0,s2
 8001c34:	fcd43c23          	sd	a3,-40(s0)
 8001c38:	0f4000ef          	jal	8001d2c <_ZN9__gnu_cxx15__snprintf_liteEPcmPKcPv>
 8001c3c:	4541                	li	a0,16
 8001c3e:	79a040ef          	jal	80063d8 <__cxa_allocate_exception>
 8001c42:	85ca                	mv	a1,s2
 8001c44:	84aa                	mv	s1,a0
 8001c46:	33d040ef          	jal	8006782 <_ZNSt12out_of_rangeC1EPKc>
 8001c4a:	00005617          	auipc	a2,0x5
 8001c4e:	a8e60613          	addi	a2,a2,-1394 # 80066d8 <_ZNSt12out_of_rangeD1Ev>
 8001c52:	00013597          	auipc	a1,0x13
 8001c56:	dfe58593          	addi	a1,a1,-514 # 8014a50 <_ZTISt12out_of_range>
 8001c5a:	8526                	mv	a0,s1
 8001c5c:	dcbff0ef          	jal	8001a26 <__cxa_throw>
 8001c60:	892a                	mv	s2,a0
 8001c62:	8526                	mv	a0,s1
 8001c64:	7ae040ef          	jal	8006412 <__cxa_free_exception>
 8001c68:	854a                	mv	a0,s2
 8001c6a:	71d060ef          	jal	8008b86 <_Unwind_Resume>

0000000008001c6e <_ZN9__gnu_cxx26__throw_insufficient_spaceEPKcS1_>:
 8001c6e:	7135                	addi	sp,sp,-160
 8001c70:	ed06                	sd	ra,152(sp)
 8001c72:	e922                	sd	s0,144(sp)
 8001c74:	e526                	sd	s1,136(sp)
 8001c76:	1100                	addi	s0,sp,160
 8001c78:	e14a                	sd	s2,128(sp)
 8001c7a:	fcce                	sd	s3,120(sp)
 8001c7c:	89aa                	mv	s3,a0
 8001c7e:	84ae                	mv	s1,a1
 8001c80:	06900613          	li	a2,105
 8001c84:	00011597          	auipc	a1,0x11
 8001c88:	adc58593          	addi	a1,a1,-1316 # 8012760 <__clzdi2+0x136>
 8001c8c:	f6040513          	addi	a0,s0,-160
 8001c90:	3a5090ef          	jal	800b834 <memcpy>
 8001c94:	413484b3          	sub	s1,s1,s3
 8001c98:	07848793          	addi	a5,s1,120
 8001c9c:	9bc1                	andi	a5,a5,-16
 8001c9e:	40f10133          	sub	sp,sp,a5
 8001ca2:	890a                	mv	s2,sp
 8001ca4:	06800613          	li	a2,104
 8001ca8:	f6040593          	addi	a1,s0,-160
 8001cac:	854a                	mv	a0,s2
 8001cae:	387090ef          	jal	800b834 <memcpy>
 8001cb2:	8626                	mv	a2,s1
 8001cb4:	85ce                	mv	a1,s3
 8001cb6:	06890513          	addi	a0,s2,104
 8001cba:	37b090ef          	jal	800b834 <memcpy>
 8001cbe:	94ca                	add	s1,s1,s2
 8001cc0:	06048423          	sb	zero,104(s1)
 8001cc4:	854a                	mv	a0,s2
 8001cc6:	ba2fe0ef          	jal	8000068 <_ZSt19__throw_logic_errorPKc>

0000000008001cca <_ZN9__gnu_cxx15__concat_size_tEPcmm>:
 8001cca:	1101                	addi	sp,sp,-32
 8001ccc:	e822                	sd	s0,16(sp)
 8001cce:	e426                	sd	s1,8(sp)
 8001cd0:	ec06                	sd	ra,24(sp)
 8001cd2:	1000                	addi	s0,sp,32
 8001cd4:	1101                	addi	sp,sp,-32
 8001cd6:	878a                	mv	a5,sp
 8001cd8:	01878493          	addi	s1,a5,24
 8001cdc:	8726                	mv	a4,s1
 8001cde:	00011317          	auipc	t1,0x11
 8001ce2:	af230313          	addi	t1,t1,-1294 # 80127d0 <__clzdi2+0x1a6>
 8001ce6:	4829                	li	a6,10
 8001ce8:	48a5                	li	a7,9
 8001cea:	030676b3          	remu	a3,a2,a6
 8001cee:	177d                	addi	a4,a4,-1
 8001cf0:	969a                	add	a3,a3,t1
 8001cf2:	0006c683          	lbu	a3,0(a3)
 8001cf6:	00d70023          	sb	a3,0(a4)
 8001cfa:	86b2                	mv	a3,a2
 8001cfc:	03065633          	divu	a2,a2,a6
 8001d00:	fed8e5e3          	bltu	a7,a3,8001cea <_ZN9__gnu_cxx15__concat_size_tEPcmm+0x20>
 8001d04:	8c99                	sub	s1,s1,a4
 8001d06:	577d                	li	a4,-1
 8001d08:	0095ea63          	bltu	a1,s1,8001d1c <_ZN9__gnu_cxx15__concat_size_tEPcmm+0x52>
 8001d0c:	409785b3          	sub	a1,a5,s1
 8001d10:	8626                	mv	a2,s1
 8001d12:	05e1                	addi	a1,a1,24
 8001d14:	321090ef          	jal	800b834 <memcpy>
 8001d18:	0004871b          	sext.w	a4,s1
 8001d1c:	fe040113          	addi	sp,s0,-32
 8001d20:	60e2                	ld	ra,24(sp)
 8001d22:	6442                	ld	s0,16(sp)
 8001d24:	64a2                	ld	s1,8(sp)
 8001d26:	853a                	mv	a0,a4
 8001d28:	6105                	addi	sp,sp,32
 8001d2a:	8082                	ret

0000000008001d2c <_ZN9__gnu_cxx15__snprintf_liteEPcmPKcPv>:
 8001d2c:	715d                	addi	sp,sp,-80
 8001d2e:	15fd                	addi	a1,a1,-1
 8001d30:	e0a2                	sd	s0,64(sp)
 8001d32:	fc26                	sd	s1,56(sp)
 8001d34:	f84a                	sd	s2,48(sp)
 8001d36:	f44e                	sd	s3,40(sp)
 8001d38:	f052                	sd	s4,32(sp)
 8001d3a:	ec56                	sd	s5,24(sp)
 8001d3c:	e85a                	sd	s6,16(sp)
 8001d3e:	e45e                	sd	s7,8(sp)
 8001d40:	e486                	sd	ra,72(sp)
 8001d42:	e062                	sd	s8,0(sp)
 8001d44:	892a                	mv	s2,a0
 8001d46:	84b2                	mv	s1,a2
 8001d48:	00b509b3          	add	s3,a0,a1
 8001d4c:	842a                	mv	s0,a0
 8001d4e:	02500a13          	li	s4,37
 8001d52:	07300a93          	li	s5,115
 8001d56:	07a00b13          	li	s6,122
 8001d5a:	07500b93          	li	s7,117
 8001d5e:	0004c783          	lbu	a5,0(s1)
 8001d62:	cbbd                	beqz	a5,8001dd8 <_ZN9__gnu_cxx15__snprintf_liteEPcmPKcPv+0xac>
 8001d64:	03347c63          	bgeu	s0,s3,8001d9c <_ZN9__gnu_cxx15__snprintf_liteEPcmPKcPv+0x70>
 8001d68:	01479b63          	bne	a5,s4,8001d7e <_ZN9__gnu_cxx15__snprintf_liteEPcmPKcPv+0x52>
 8001d6c:	0014c783          	lbu	a5,1(s1)
 8001d70:	01578e63          	beq	a5,s5,8001d8c <_ZN9__gnu_cxx15__snprintf_liteEPcmPKcPv+0x60>
 8001d74:	05678063          	beq	a5,s6,8001db4 <_ZN9__gnu_cxx15__snprintf_liteEPcmPKcPv+0x88>
 8001d78:	01479363          	bne	a5,s4,8001d7e <_ZN9__gnu_cxx15__snprintf_liteEPcmPKcPv+0x52>
 8001d7c:	0485                	addi	s1,s1,1
 8001d7e:	0004c783          	lbu	a5,0(s1)
 8001d82:	0405                	addi	s0,s0,1
 8001d84:	0485                	addi	s1,s1,1
 8001d86:	fef40fa3          	sb	a5,-1(s0)
 8001d8a:	bfd1                	j	8001d5e <_ZN9__gnu_cxx15__snprintf_liteEPcmPKcPv+0x32>
 8001d8c:	629c                	ld	a5,0(a3)
 8001d8e:	00868613          	addi	a2,a3,8
 8001d92:	0007c703          	lbu	a4,0(a5)
 8001d96:	cf01                	beqz	a4,8001dae <_ZN9__gnu_cxx15__snprintf_liteEPcmPKcPv+0x82>
 8001d98:	01341663          	bne	s0,s3,8001da4 <_ZN9__gnu_cxx15__snprintf_liteEPcmPKcPv+0x78>
 8001d9c:	85a2                	mv	a1,s0
 8001d9e:	854a                	mv	a0,s2
 8001da0:	ecfff0ef          	jal	8001c6e <_ZN9__gnu_cxx26__throw_insufficient_spaceEPKcS1_>
 8001da4:	0405                	addi	s0,s0,1
 8001da6:	0785                	addi	a5,a5,1
 8001da8:	fee40fa3          	sb	a4,-1(s0)
 8001dac:	b7dd                	j	8001d92 <_ZN9__gnu_cxx15__snprintf_liteEPcmPKcPv+0x66>
 8001dae:	0489                	addi	s1,s1,2
 8001db0:	86b2                	mv	a3,a2
 8001db2:	b775                	j	8001d5e <_ZN9__gnu_cxx15__snprintf_liteEPcmPKcPv+0x32>
 8001db4:	0024c783          	lbu	a5,2(s1)
 8001db8:	fd7793e3          	bne	a5,s7,8001d7e <_ZN9__gnu_cxx15__snprintf_liteEPcmPKcPv+0x52>
 8001dbc:	6290                	ld	a2,0(a3)
 8001dbe:	408985b3          	sub	a1,s3,s0
 8001dc2:	8522                	mv	a0,s0
 8001dc4:	00868c13          	addi	s8,a3,8
 8001dc8:	f03ff0ef          	jal	8001cca <_ZN9__gnu_cxx15__concat_size_tEPcmm>
 8001dcc:	fca058e3          	blez	a0,8001d9c <_ZN9__gnu_cxx15__snprintf_liteEPcmPKcPv+0x70>
 8001dd0:	942a                	add	s0,s0,a0
 8001dd2:	048d                	addi	s1,s1,3
 8001dd4:	86e2                	mv	a3,s8
 8001dd6:	b761                	j	8001d5e <_ZN9__gnu_cxx15__snprintf_liteEPcmPKcPv+0x32>
 8001dd8:	00040023          	sb	zero,0(s0)
 8001ddc:	4124053b          	subw	a0,s0,s2
 8001de0:	60a6                	ld	ra,72(sp)
 8001de2:	6406                	ld	s0,64(sp)
 8001de4:	74e2                	ld	s1,56(sp)
 8001de6:	7942                	ld	s2,48(sp)
 8001de8:	79a2                	ld	s3,40(sp)
 8001dea:	7a02                	ld	s4,32(sp)
 8001dec:	6ae2                	ld	s5,24(sp)
 8001dee:	6b42                	ld	s6,16(sp)
 8001df0:	6ba2                	ld	s7,8(sp)
 8001df2:	6c02                	ld	s8,0(sp)
 8001df4:	6161                	addi	sp,sp,80
 8001df6:	8082                	ret

0000000008001df8 <_ZNKSt9bad_alloc4whatEv>:
 8001df8:	00011517          	auipc	a0,0x11
 8001dfc:	9e850513          	addi	a0,a0,-1560 # 80127e0 <__clzdi2+0x1b6>
 8001e00:	8082                	ret

0000000008001e02 <_ZNSt9bad_allocD1Ev>:
 8001e02:	00012797          	auipc	a5,0x12
 8001e06:	8fe78793          	addi	a5,a5,-1794 # 8013700 <_ZTVSt9bad_alloc+0x10>
 8001e0a:	e11c                	sd	a5,0(a0)
 8001e0c:	6cc0406f          	j	80064d8 <_ZNSt9exceptionD1Ev>

0000000008001e10 <_ZNSt9bad_allocD0Ev>:
 8001e10:	1141                	addi	sp,sp,-16
 8001e12:	e022                	sd	s0,0(sp)
 8001e14:	e406                	sd	ra,8(sp)
 8001e16:	842a                	mv	s0,a0
 8001e18:	febff0ef          	jal	8001e02 <_ZNSt9bad_allocD1Ev>
 8001e1c:	8522                	mv	a0,s0
 8001e1e:	6402                	ld	s0,0(sp)
 8001e20:	60a2                	ld	ra,8(sp)
 8001e22:	45a1                	li	a1,8
 8001e24:	0141                	addi	sp,sp,16
 8001e26:	4e80406f          	j	800630e <_ZdlPvm>

0000000008001e2a <_ZNKSt20bad_array_new_length4whatEv>:
 8001e2a:	00011517          	auipc	a0,0x11
 8001e2e:	9c650513          	addi	a0,a0,-1594 # 80127f0 <__clzdi2+0x1c6>
 8001e32:	8082                	ret

0000000008001e34 <_ZNSt20bad_array_new_lengthD1Ev>:
 8001e34:	00012797          	auipc	a5,0x12
 8001e38:	92c78793          	addi	a5,a5,-1748 # 8013760 <_ZTVSt20bad_array_new_length+0x10>
 8001e3c:	e11c                	sd	a5,0(a0)
 8001e3e:	b7d1                	j	8001e02 <_ZNSt9bad_allocD1Ev>

0000000008001e40 <_ZNSt20bad_array_new_lengthD0Ev>:
 8001e40:	1141                	addi	sp,sp,-16
 8001e42:	e022                	sd	s0,0(sp)
 8001e44:	e406                	sd	ra,8(sp)
 8001e46:	842a                	mv	s0,a0
 8001e48:	fedff0ef          	jal	8001e34 <_ZNSt20bad_array_new_lengthD1Ev>
 8001e4c:	8522                	mv	a0,s0
 8001e4e:	6402                	ld	s0,0(sp)
 8001e50:	60a2                	ld	ra,8(sp)
 8001e52:	45a1                	li	a1,8
 8001e54:	0141                	addi	sp,sp,16
 8001e56:	4b80406f          	j	800630e <_ZdlPvm>

0000000008001e5a <is_fnqual_component_type>:
 8001e5a:	3511                	addiw	a0,a0,-28
 8001e5c:	03500793          	li	a5,53
 8001e60:	00a7e963          	bltu	a5,a0,8001e72 <is_fnqual_component_type+0x18>
 8001e64:	47b5                	li	a5,13
 8001e66:	17ca                	slli	a5,a5,0x32
 8001e68:	07fd                	addi	a5,a5,31
 8001e6a:	00a7d533          	srl	a0,a5,a0
 8001e6e:	8905                	andi	a0,a0,1
 8001e70:	8082                	ret
 8001e72:	4501                	li	a0,0
 8001e74:	8082                	ret

0000000008001e76 <d_make_empty>:
 8001e76:	5514                	lw	a3,40(a0)
 8001e78:	555c                	lw	a5,44(a0)
 8001e7a:	872a                	mv	a4,a0
 8001e7c:	00f6de63          	bge	a3,a5,8001e98 <d_make_empty+0x22>
 8001e80:	711c                	ld	a5,32(a0)
 8001e82:	00569613          	slli	a2,a3,0x5
 8001e86:	2685                	addiw	a3,a3,1
 8001e88:	00c78533          	add	a0,a5,a2
 8001e8c:	00052223          	sw	zero,4(a0)
 8001e90:	00052423          	sw	zero,8(a0)
 8001e94:	d714                	sw	a3,40(a4)
 8001e96:	8082                	ret
 8001e98:	4501                	li	a0,0
 8001e9a:	8082                	ret

0000000008001e9c <d_make_comp>:
 8001e9c:	1101                	addi	sp,sp,-32
 8001e9e:	e822                	sd	s0,16(sp)
 8001ea0:	e426                	sd	s1,8(sp)
 8001ea2:	e04a                	sd	s2,0(sp)
 8001ea4:	ec06                	sd	ra,24(sp)
 8001ea6:	03100793          	li	a5,49
 8001eaa:	84ae                	mv	s1,a1
 8001eac:	8932                	mv	s2,a2
 8001eae:	8436                	mv	s0,a3
 8001eb0:	08b7e163          	bltu	a5,a1,8001f32 <d_make_comp+0x96>
 8001eb4:	02800793          	li	a5,40
 8001eb8:	02b7e563          	bltu	a5,a1,8001ee2 <d_make_comp+0x46>
 8001ebc:	fff5871b          	addiw	a4,a1,-1
 8001ec0:	4785                	li	a5,1
 8001ec2:	00e797b3          	sll	a5,a5,a4
 8001ec6:	17c01737          	lui	a4,0x17c01
 8001eca:	072e                	slli	a4,a4,0xb
 8001ecc:	b0070713          	addi	a4,a4,-1280 # 17c00b00 <__stack_top+0x7c00b00>
 8001ed0:	8f7d                	and	a4,a4,a5
 8001ed2:	cb1d                	beqz	a4,8001f08 <d_make_comp+0x6c>
 8001ed4:	08090c63          	beqz	s2,8001f6c <d_make_comp+0xd0>
 8001ed8:	f9fff0ef          	jal	8001e76 <d_make_empty>
 8001edc:	ed4d                	bnez	a0,8001f96 <d_make_comp+0xfa>
 8001ede:	842a                	mv	s0,a0
 8001ee0:	a091                	j	8001f24 <d_make_comp+0x88>
 8001ee2:	fd75879b          	addiw	a5,a1,-41
 8001ee6:	0007869b          	sext.w	a3,a5
 8001eea:	4721                	li	a4,8
 8001eec:	08d76063          	bltu	a4,a3,8001f6c <d_make_comp+0xd0>
 8001ef0:	02079713          	slli	a4,a5,0x20
 8001ef4:	01e75793          	srli	a5,a4,0x1e
 8001ef8:	00012717          	auipc	a4,0x12
 8001efc:	88070713          	addi	a4,a4,-1920 # 8013778 <_ZTVSt20bad_array_new_length+0x28>
 8001f00:	97ba                	add	a5,a5,a4
 8001f02:	439c                	lw	a5,0(a5)
 8001f04:	97ba                	add	a5,a5,a4
 8001f06:	8782                	jr	a5
 8001f08:	0187d713          	srli	a4,a5,0x18
 8001f0c:	0ff77713          	zext.b	a4,a4
 8001f10:	f761                	bnez	a4,8001ed8 <d_make_comp+0x3c>
 8001f12:	4705                	li	a4,1
 8001f14:	1702                	slli	a4,a4,0x20
 8001f16:	40f70713          	addi	a4,a4,1039
 8001f1a:	8ff9                	and	a5,a5,a4
 8001f1c:	cba1                	beqz	a5,8001f6c <d_make_comp+0xd0>
 8001f1e:	04090763          	beqz	s2,8001f6c <d_make_comp+0xd0>
 8001f22:	f85d                	bnez	s0,8001ed8 <d_make_comp+0x3c>
 8001f24:	60e2                	ld	ra,24(sp)
 8001f26:	8522                	mv	a0,s0
 8001f28:	6442                	ld	s0,16(sp)
 8001f2a:	64a2                	ld	s1,8(sp)
 8001f2c:	6902                	ld	s2,0(sp)
 8001f2e:	6105                	addi	sp,sp,32
 8001f30:	8082                	ret
 8001f32:	04f00793          	li	a5,79
 8001f36:	02b7ed63          	bltu	a5,a1,8001f70 <d_make_comp+0xd4>
 8001f3a:	03300793          	li	a5,51
 8001f3e:	02b7f763          	bgeu	a5,a1,8001f6c <d_make_comp+0xd0>
 8001f42:	fcc4871b          	addiw	a4,s1,-52
 8001f46:	4785                	li	a5,1
 8001f48:	00e797b3          	sll	a5,a5,a4
 8001f4c:	01c71737          	lui	a4,0x1c71
 8001f50:	10770713          	addi	a4,a4,263 # 1c71107 <_start-0x638eef9>
 8001f54:	8f7d                	and	a4,a4,a5
 8001f56:	ff3d                	bnez	a4,8001ed4 <d_make_comp+0x38>
 8001f58:	0a003737          	lui	a4,0xa003
 8001f5c:	ef870713          	addi	a4,a4,-264 # a002ef8 <__BSS_END__+0x1fea688>
 8001f60:	8ff9                	and	a5,a5,a4
 8001f62:	ffd5                	bnez	a5,8001f1e <d_make_comp+0x82>
 8001f64:	04e00793          	li	a5,78
 8001f68:	f6f488e3          	beq	s1,a5,8001ed8 <d_make_comp+0x3c>
 8001f6c:	4401                	li	s0,0
 8001f6e:	bf5d                	j	8001f24 <d_make_comp+0x88>
 8001f70:	fae5879b          	addiw	a5,a1,-82
 8001f74:	0007869b          	sext.w	a3,a5
 8001f78:	4725                	li	a4,9
 8001f7a:	f4d76fe3          	bltu	a4,a3,8001ed8 <d_make_comp+0x3c>
 8001f7e:	02079713          	slli	a4,a5,0x20
 8001f82:	01e75793          	srli	a5,a4,0x1e
 8001f86:	00012717          	auipc	a4,0x12
 8001f8a:	81670713          	addi	a4,a4,-2026 # 801379c <_ZTVSt20bad_array_new_length+0x4c>
 8001f8e:	97ba                	add	a5,a5,a4
 8001f90:	439c                	lw	a5,0(a5)
 8001f92:	97ba                	add	a5,a5,a4
 8001f94:	8782                	jr	a5
 8001f96:	c104                	sw	s1,0(a0)
 8001f98:	01253823          	sd	s2,16(a0)
 8001f9c:	ed00                	sd	s0,24(a0)
 8001f9e:	b781                	j	8001ede <d_make_comp+0x42>

0000000008001fa0 <d_make_name>:
 8001fa0:	1101                	addi	sp,sp,-32
 8001fa2:	e822                	sd	s0,16(sp)
 8001fa4:	e426                	sd	s1,8(sp)
 8001fa6:	ec06                	sd	ra,24(sp)
 8001fa8:	84ae                	mv	s1,a1
 8001faa:	8432                	mv	s0,a2
 8001fac:	ecbff0ef          	jal	8001e76 <d_make_empty>
 8001fb0:	c911                	beqz	a0,8001fc4 <d_make_name+0x24>
 8001fb2:	cc91                	beqz	s1,8001fce <d_make_name+0x2e>
 8001fb4:	00805d63          	blez	s0,8001fce <d_make_name+0x2e>
 8001fb8:	00053023          	sd	zero,0(a0)
 8001fbc:	00052423          	sw	zero,8(a0)
 8001fc0:	e904                	sd	s1,16(a0)
 8001fc2:	cd00                	sw	s0,24(a0)
 8001fc4:	60e2                	ld	ra,24(sp)
 8001fc6:	6442                	ld	s0,16(sp)
 8001fc8:	64a2                	ld	s1,8(sp)
 8001fca:	6105                	addi	sp,sp,32
 8001fcc:	8082                	ret
 8001fce:	4501                	li	a0,0
 8001fd0:	bfd5                	j	8001fc4 <d_make_name+0x24>

0000000008001fd2 <d_make_builtin_type>:
 8001fd2:	1141                	addi	sp,sp,-16
 8001fd4:	e022                	sd	s0,0(sp)
 8001fd6:	e406                	sd	ra,8(sp)
 8001fd8:	842e                	mv	s0,a1
 8001fda:	e9dff0ef          	jal	8001e76 <d_make_empty>
 8001fde:	c509                	beqz	a0,8001fe8 <d_make_builtin_type+0x16>
 8001fe0:	02700793          	li	a5,39
 8001fe4:	c11c                	sw	a5,0(a0)
 8001fe6:	e900                	sd	s0,16(a0)
 8001fe8:	60a2                	ld	ra,8(sp)
 8001fea:	6402                	ld	s0,0(sp)
 8001fec:	0141                	addi	sp,sp,16
 8001fee:	8082                	ret

0000000008001ff0 <d_number>:
 8001ff0:	6d18                	ld	a4,24(a0)
 8001ff2:	06e00613          	li	a2,110
 8001ff6:	86aa                	mv	a3,a0
 8001ff8:	00074783          	lbu	a5,0(a4)
 8001ffc:	4801                	li	a6,0
 8001ffe:	00c79863          	bne	a5,a2,800200e <d_number+0x1e>
 8002002:	00170793          	addi	a5,a4,1
 8002006:	ed1c                	sd	a5,24(a0)
 8002008:	00174783          	lbu	a5,1(a4)
 800200c:	4805                	li	a6,1
 800200e:	80000637          	lui	a2,0x80000
 8002012:	4501                	li	a0,0
 8002014:	48a5                	li	a7,9
 8002016:	367d                	addiw	a2,a2,-1 # 7fffffff <__stack_top+0x6fffffff>
 8002018:	45a9                	li	a1,10
 800201a:	fd07871b          	addiw	a4,a5,-48
 800201e:	0ff77793          	zext.b	a5,a4
 8002022:	00f8f763          	bgeu	a7,a5,8002030 <d_number+0x40>
 8002026:	02080763          	beqz	a6,8002054 <d_number+0x64>
 800202a:	40a0053b          	negw	a0,a0
 800202e:	8082                	ret
 8002030:	40e607bb          	subw	a5,a2,a4
 8002034:	02b7c7bb          	divw	a5,a5,a1
 8002038:	00a7cd63          	blt	a5,a0,8002052 <d_number+0x62>
 800203c:	02a587bb          	mulw	a5,a1,a0
 8002040:	00f7053b          	addw	a0,a4,a5
 8002044:	6e9c                	ld	a5,24(a3)
 8002046:	00178713          	addi	a4,a5,1
 800204a:	ee98                	sd	a4,24(a3)
 800204c:	0017c783          	lbu	a5,1(a5)
 8002050:	b7e9                	j	800201a <d_number+0x2a>
 8002052:	557d                	li	a0,-1
 8002054:	8082                	ret

0000000008002056 <d_number_component>:
 8002056:	1101                	addi	sp,sp,-32
 8002058:	e822                	sd	s0,16(sp)
 800205a:	e426                	sd	s1,8(sp)
 800205c:	ec06                	sd	ra,24(sp)
 800205e:	84aa                	mv	s1,a0
 8002060:	e17ff0ef          	jal	8001e76 <d_make_empty>
 8002064:	842a                	mv	s0,a0
 8002066:	c901                	beqz	a0,8002076 <d_number_component+0x20>
 8002068:	04300793          	li	a5,67
 800206c:	c11c                	sw	a5,0(a0)
 800206e:	8526                	mv	a0,s1
 8002070:	f81ff0ef          	jal	8001ff0 <d_number>
 8002074:	e808                	sd	a0,16(s0)
 8002076:	60e2                	ld	ra,24(sp)
 8002078:	8522                	mv	a0,s0
 800207a:	6442                	ld	s0,16(sp)
 800207c:	64a2                	ld	s1,8(sp)
 800207e:	6105                	addi	sp,sp,32
 8002080:	8082                	ret

0000000008002082 <d_call_offset>:
 8002082:	1141                	addi	sp,sp,-16
 8002084:	e022                	sd	s0,0(sp)
 8002086:	e406                	sd	ra,8(sp)
 8002088:	842a                	mv	s0,a0
 800208a:	ed99                	bnez	a1,80020a8 <d_call_offset+0x26>
 800208c:	6d1c                	ld	a5,24(a0)
 800208e:	0007c703          	lbu	a4,0(a5)
 8002092:	e711                	bnez	a4,800209e <d_call_offset+0x1c>
 8002094:	4501                	li	a0,0
 8002096:	60a2                	ld	ra,8(sp)
 8002098:	6402                	ld	s0,0(sp)
 800209a:	0141                	addi	sp,sp,16
 800209c:	8082                	ret
 800209e:	00178713          	addi	a4,a5,1
 80020a2:	ed18                	sd	a4,24(a0)
 80020a4:	0007c583          	lbu	a1,0(a5)
 80020a8:	06800793          	li	a5,104
 80020ac:	02f59063          	bne	a1,a5,80020cc <d_call_offset+0x4a>
 80020b0:	8522                	mv	a0,s0
 80020b2:	f3fff0ef          	jal	8001ff0 <d_number>
 80020b6:	6c1c                	ld	a5,24(s0)
 80020b8:	05f00713          	li	a4,95
 80020bc:	0007c683          	lbu	a3,0(a5)
 80020c0:	fce69ae3          	bne	a3,a4,8002094 <d_call_offset+0x12>
 80020c4:	0785                	addi	a5,a5,1
 80020c6:	ec1c                	sd	a5,24(s0)
 80020c8:	4505                	li	a0,1
 80020ca:	b7f1                	j	8002096 <d_call_offset+0x14>
 80020cc:	07600793          	li	a5,118
 80020d0:	fcf592e3          	bne	a1,a5,8002094 <d_call_offset+0x12>
 80020d4:	8522                	mv	a0,s0
 80020d6:	f1bff0ef          	jal	8001ff0 <d_number>
 80020da:	6c1c                	ld	a5,24(s0)
 80020dc:	05f00713          	li	a4,95
 80020e0:	0007c683          	lbu	a3,0(a5)
 80020e4:	fae698e3          	bne	a3,a4,8002094 <d_call_offset+0x12>
 80020e8:	0785                	addi	a5,a5,1
 80020ea:	ec1c                	sd	a5,24(s0)
 80020ec:	b7d1                	j	80020b0 <d_call_offset+0x2e>

00000000080020ee <d_ref_qualifier>:
 80020ee:	6d18                	ld	a4,24(a0)
 80020f0:	05200693          	li	a3,82
 80020f4:	862e                	mv	a2,a1
 80020f6:	00074783          	lbu	a5,0(a4)
 80020fa:	00d78b63          	beq	a5,a3,8002110 <d_ref_qualifier+0x22>
 80020fe:	04f00693          	li	a3,79
 8002102:	00d79f63          	bne	a5,a3,8002120 <d_ref_qualifier+0x32>
 8002106:	453c                	lw	a5,72(a0)
 8002108:	02000593          	li	a1,32
 800210c:	278d                	addiw	a5,a5,3
 800210e:	a021                	j	8002116 <d_ref_qualifier+0x28>
 8002110:	453c                	lw	a5,72(a0)
 8002112:	45fd                	li	a1,31
 8002114:	2789                	addiw	a5,a5,2
 8002116:	0705                	addi	a4,a4,1
 8002118:	c53c                	sw	a5,72(a0)
 800211a:	ed18                	sd	a4,24(a0)
 800211c:	4681                	li	a3,0
 800211e:	bbbd                	j	8001e9c <d_make_comp>
 8002120:	852e                	mv	a0,a1
 8002122:	8082                	ret

0000000008002124 <d_compact_number>:
 8002124:	6d1c                	ld	a5,24(a0)
 8002126:	1141                	addi	sp,sp,-16
 8002128:	e022                	sd	s0,0(sp)
 800212a:	e406                	sd	ra,8(sp)
 800212c:	0007c783          	lbu	a5,0(a5)
 8002130:	05f00713          	li	a4,95
 8002134:	842a                	mv	s0,a0
 8002136:	02e78a63          	beq	a5,a4,800216a <d_compact_number+0x46>
 800213a:	06e00713          	li	a4,110
 800213e:	00e79763          	bne	a5,a4,800214c <d_compact_number+0x28>
 8002142:	557d                	li	a0,-1
 8002144:	60a2                	ld	ra,8(sp)
 8002146:	6402                	ld	s0,0(sp)
 8002148:	0141                	addi	sp,sp,16
 800214a:	8082                	ret
 800214c:	ea5ff0ef          	jal	8001ff0 <d_number>
 8002150:	2505                	addiw	a0,a0,1
 8002152:	fe0548e3          	bltz	a0,8002142 <d_compact_number+0x1e>
 8002156:	6c1c                	ld	a5,24(s0)
 8002158:	05f00713          	li	a4,95
 800215c:	0007c683          	lbu	a3,0(a5)
 8002160:	fee691e3          	bne	a3,a4,8002142 <d_compact_number+0x1e>
 8002164:	0785                	addi	a5,a5,1
 8002166:	ec1c                	sd	a5,24(s0)
 8002168:	bff1                	j	8002144 <d_compact_number+0x20>
 800216a:	4501                	li	a0,0
 800216c:	b7ed                	j	8002156 <d_compact_number+0x32>

000000000800216e <d_template_param>:
 800216e:	6d1c                	ld	a5,24(a0)
 8002170:	05400713          	li	a4,84
 8002174:	0007c683          	lbu	a3,0(a5)
 8002178:	00e68463          	beq	a3,a4,8002180 <d_template_param+0x12>
 800217c:	4501                	li	a0,0
 800217e:	8082                	ret
 8002180:	1101                	addi	sp,sp,-32
 8002182:	e822                	sd	s0,16(sp)
 8002184:	e426                	sd	s1,8(sp)
 8002186:	ec06                	sd	ra,24(sp)
 8002188:	0785                	addi	a5,a5,1
 800218a:	ed1c                	sd	a5,24(a0)
 800218c:	842a                	mv	s0,a0
 800218e:	f97ff0ef          	jal	8002124 <d_compact_number>
 8002192:	84aa                	mv	s1,a0
 8002194:	4501                	li	a0,0
 8002196:	0004c963          	bltz	s1,80021a8 <d_template_param+0x3a>
 800219a:	8522                	mv	a0,s0
 800219c:	cdbff0ef          	jal	8001e76 <d_make_empty>
 80021a0:	c501                	beqz	a0,80021a8 <d_template_param+0x3a>
 80021a2:	4795                	li	a5,5
 80021a4:	c11c                	sw	a5,0(a0)
 80021a6:	e904                	sd	s1,16(a0)
 80021a8:	60e2                	ld	ra,24(sp)
 80021aa:	6442                	ld	s0,16(sp)
 80021ac:	64a2                	ld	s1,8(sp)
 80021ae:	6105                	addi	sp,sp,32
 80021b0:	8082                	ret

00000000080021b2 <d_discriminator>:
 80021b2:	6d1c                	ld	a5,24(a0)
 80021b4:	05f00693          	li	a3,95
 80021b8:	0007c703          	lbu	a4,0(a5)
 80021bc:	04d71e63          	bne	a4,a3,8002218 <d_discriminator+0x66>
 80021c0:	1101                	addi	sp,sp,-32
 80021c2:	e822                	sd	s0,16(sp)
 80021c4:	e426                	sd	s1,8(sp)
 80021c6:	ec06                	sd	ra,24(sp)
 80021c8:	00178693          	addi	a3,a5,1
 80021cc:	ed14                	sd	a3,24(a0)
 80021ce:	0017c683          	lbu	a3,1(a5)
 80021d2:	842a                	mv	s0,a0
 80021d4:	4485                	li	s1,1
 80021d6:	00e69563          	bne	a3,a4,80021e0 <d_discriminator+0x2e>
 80021da:	0789                	addi	a5,a5,2
 80021dc:	ed1c                	sd	a5,24(a0)
 80021de:	4489                	li	s1,2
 80021e0:	8522                	mv	a0,s0
 80021e2:	e0fff0ef          	jal	8001ff0 <d_number>
 80021e6:	87aa                	mv	a5,a0
 80021e8:	4501                	li	a0,0
 80021ea:	0207c263          	bltz	a5,800220e <d_discriminator+0x5c>
 80021ee:	4709                	li	a4,2
 80021f0:	00e49e63          	bne	s1,a4,800220c <d_discriminator+0x5a>
 80021f4:	4725                	li	a4,9
 80021f6:	00f75b63          	bge	a4,a5,800220c <d_discriminator+0x5a>
 80021fa:	6c1c                	ld	a5,24(s0)
 80021fc:	05f00713          	li	a4,95
 8002200:	0007c683          	lbu	a3,0(a5)
 8002204:	00e69563          	bne	a3,a4,800220e <d_discriminator+0x5c>
 8002208:	0785                	addi	a5,a5,1
 800220a:	ec1c                	sd	a5,24(s0)
 800220c:	4505                	li	a0,1
 800220e:	60e2                	ld	ra,24(sp)
 8002210:	6442                	ld	s0,16(sp)
 8002212:	64a2                	ld	s1,8(sp)
 8002214:	6105                	addi	sp,sp,32
 8002216:	8082                	ret
 8002218:	4505                	li	a0,1
 800221a:	8082                	ret

000000000800221c <d_add_substitution>:
 800221c:	87aa                	mv	a5,a0
 800221e:	cd99                	beqz	a1,800223c <d_add_substitution+0x20>
 8002220:	5d18                	lw	a4,56(a0)
 8002222:	5d54                	lw	a3,60(a0)
 8002224:	4501                	li	a0,0
 8002226:	00d75c63          	bge	a4,a3,800223e <d_add_substitution+0x22>
 800222a:	7b94                	ld	a3,48(a5)
 800222c:	00371613          	slli	a2,a4,0x3
 8002230:	2705                	addiw	a4,a4,1
 8002232:	96b2                	add	a3,a3,a2
 8002234:	e28c                	sd	a1,0(a3)
 8002236:	df98                	sw	a4,56(a5)
 8002238:	4505                	li	a0,1
 800223a:	8082                	ret
 800223c:	4501                	li	a0,0
 800223e:	8082                	ret

0000000008002240 <d_count_templates_scopes>:
 8002240:	1101                	addi	sp,sp,-32
 8002242:	e822                	sd	s0,16(sp)
 8002244:	e426                	sd	s1,8(sp)
 8002246:	842e                	mv	s0,a1
 8002248:	84aa                	mv	s1,a0
 800224a:	ec06                	sd	ra,24(sp)
 800224c:	4605                	li	a2,1
 800224e:	40000893          	li	a7,1024
 8002252:	03300593          	li	a1,51
 8002256:	4521                	li	a0,8
 8002258:	c805                	beqz	s0,8002288 <d_count_templates_scopes+0x48>
 800225a:	441c                	lw	a5,8(s0)
 800225c:	02f64663          	blt	a2,a5,8002288 <d_count_templates_scopes+0x48>
 8002260:	1344a683          	lw	a3,308(s1)
 8002264:	02d8c263          	blt	a7,a3,8002288 <d_count_templates_scopes+0x48>
 8002268:	2785                	addiw	a5,a5,1
 800226a:	c41c                	sw	a5,8(s0)
 800226c:	401c                	lw	a5,0(s0)
 800226e:	06f5ef63          	bltu	a1,a5,80022ec <d_count_templates_scopes+0xac>
 8002272:	02f56063          	bltu	a0,a5,8002292 <d_count_templates_scopes+0x52>
 8002276:	471d                	li	a4,7
 8002278:	02e78f63          	beq	a5,a4,80022b6 <d_count_templates_scopes+0x76>
 800227c:	02a78d63          	beq	a5,a0,80022b6 <d_count_templates_scopes+0x76>
 8002280:	470d                	li	a4,3
 8002282:	02f76c63          	bltu	a4,a5,80022ba <d_count_templates_scopes+0x7a>
 8002286:	e3b1                	bnez	a5,80022ca <d_count_templates_scopes+0x8a>
 8002288:	60e2                	ld	ra,24(sp)
 800228a:	6442                	ld	s0,16(sp)
 800228c:	64a2                	ld	s1,8(sp)
 800228e:	6105                	addi	sp,sp,32
 8002290:	8082                	ret
 8002292:	03ef6737          	lui	a4,0x3ef6
 8002296:	7ff70713          	addi	a4,a4,2047 # 3ef67ff <_start-0x4109801>
 800229a:	0762                	slli	a4,a4,0x18
 800229c:	00f61833          	sll	a6,a2,a5
 80022a0:	e0070713          	addi	a4,a4,-512
 80022a4:	00e87733          	and	a4,a6,a4
 80022a8:	e30d                	bnez	a4,80022ca <d_count_templates_scopes+0x8a>
 80022aa:	02385713          	srli	a4,a6,0x23
 80022ae:	8b0d                	andi	a4,a4,3
 80022b0:	e735                	bnez	a4,800231c <d_count_templates_scopes+0xdc>
 80022b2:	fcb79be3          	bne	a5,a1,8002288 <d_count_templates_scopes+0x48>
 80022b6:	6c00                	ld	s0,24(s0)
 80022b8:	b745                	j	8002258 <d_count_templates_scopes+0x18>
 80022ba:	4711                	li	a4,4
 80022bc:	fce796e3          	bne	a5,a4,8002288 <d_count_templates_scopes+0x48>
 80022c0:	16c4a783          	lw	a5,364(s1)
 80022c4:	2785                	addiw	a5,a5,1
 80022c6:	16f4a623          	sw	a5,364(s1)
 80022ca:	680c                	ld	a1,16(s0)
 80022cc:	2685                	addiw	a3,a3,1
 80022ce:	12d4aa23          	sw	a3,308(s1)
 80022d2:	8526                	mv	a0,s1
 80022d4:	f6dff0ef          	jal	8002240 <d_count_templates_scopes>
 80022d8:	6c0c                	ld	a1,24(s0)
 80022da:	8526                	mv	a0,s1
 80022dc:	f65ff0ef          	jal	8002240 <d_count_templates_scopes>
 80022e0:	1344a783          	lw	a5,308(s1)
 80022e4:	37fd                	addiw	a5,a5,-1
 80022e6:	12f4aa23          	sw	a5,308(s1)
 80022ea:	bf79                	j	8002288 <d_count_templates_scopes+0x48>
 80022ec:	fcc7879b          	addiw	a5,a5,-52
 80022f0:	02100713          	li	a4,33
 80022f4:	f8f76ae3          	bltu	a4,a5,8002288 <d_count_templates_scopes+0x48>
 80022f8:	3fc14737          	lui	a4,0x3fc14
 80022fc:	00f617b3          	sll	a5,a2,a5
 8002300:	177d                	addi	a4,a4,-1 # 3fc13fff <__stack_top+0x2fc13fff>
 8002302:	8f7d                	and	a4,a4,a5
 8002304:	f379                	bnez	a4,80022ca <d_count_templates_scopes+0x8a>
 8002306:	10003737          	lui	a4,0x10003
 800230a:	0716                	slli	a4,a4,0x5
 800230c:	8f7d                	and	a4,a4,a5
 800230e:	e709                	bnez	a4,8002318 <d_count_templates_scopes+0xd8>
 8002310:	0137d713          	srli	a4,a5,0x13
 8002314:	8b0d                	andi	a4,a4,3
 8002316:	db2d                	beqz	a4,8002288 <d_count_templates_scopes+0x48>
 8002318:	6800                	ld	s0,16(s0)
 800231a:	bf3d                	j	8002258 <d_count_templates_scopes+0x18>
 800231c:	681c                	ld	a5,16(s0)
 800231e:	4398                	lw	a4,0(a5)
 8002320:	4795                	li	a5,5
 8002322:	faf714e3          	bne	a4,a5,80022ca <d_count_templates_scopes+0x8a>
 8002326:	15c4a783          	lw	a5,348(s1)
 800232a:	2785                	addiw	a5,a5,1
 800232c:	14f4ae23          	sw	a5,348(s1)
 8002330:	bf69                	j	80022ca <d_count_templates_scopes+0x8a>

0000000008002332 <d_print_flush>:
 8002332:	10053583          	ld	a1,256(a0)
 8002336:	1141                	addi	sp,sp,-16
 8002338:	e022                	sd	s0,0(sp)
 800233a:	e406                	sd	ra,8(sp)
 800233c:	00b507b3          	add	a5,a0,a1
 8002340:	00078023          	sb	zero,0(a5)
 8002344:	11053783          	ld	a5,272(a0)
 8002348:	11853603          	ld	a2,280(a0)
 800234c:	842a                	mv	s0,a0
 800234e:	9782                	jalr	a5
 8002350:	14043783          	ld	a5,320(s0)
 8002354:	60a2                	ld	ra,8(sp)
 8002356:	10043023          	sd	zero,256(s0)
 800235a:	0785                	addi	a5,a5,1
 800235c:	14f43023          	sd	a5,320(s0)
 8002360:	6402                	ld	s0,0(sp)
 8002362:	0141                	addi	sp,sp,16
 8002364:	8082                	ret

0000000008002366 <d_append_char>:
 8002366:	10053703          	ld	a4,256(a0)
 800236a:	1101                	addi	sp,sp,-32
 800236c:	e822                	sd	s0,16(sp)
 800236e:	e426                	sd	s1,8(sp)
 8002370:	ec06                	sd	ra,24(sp)
 8002372:	0ff00793          	li	a5,255
 8002376:	842a                	mv	s0,a0
 8002378:	84ae                	mv	s1,a1
 800237a:	00f71463          	bne	a4,a5,8002382 <d_append_char+0x1c>
 800237e:	fb5ff0ef          	jal	8002332 <d_print_flush>
 8002382:	10043783          	ld	a5,256(s0)
 8002386:	00178713          	addi	a4,a5,1
 800238a:	10e43023          	sd	a4,256(s0)
 800238e:	97a2                	add	a5,a5,s0
 8002390:	00978023          	sb	s1,0(a5)
 8002394:	10940423          	sb	s1,264(s0)
 8002398:	60e2                	ld	ra,24(sp)
 800239a:	6442                	ld	s0,16(sp)
 800239c:	64a2                	ld	s1,8(sp)
 800239e:	6105                	addi	sp,sp,32
 80023a0:	8082                	ret

00000000080023a2 <d_append_buffer>:
 80023a2:	1101                	addi	sp,sp,-32
 80023a4:	e822                	sd	s0,16(sp)
 80023a6:	e426                	sd	s1,8(sp)
 80023a8:	e04a                	sd	s2,0(sp)
 80023aa:	ec06                	sd	ra,24(sp)
 80023ac:	892a                	mv	s2,a0
 80023ae:	842e                	mv	s0,a1
 80023b0:	00c584b3          	add	s1,a1,a2
 80023b4:	00941863          	bne	s0,s1,80023c4 <d_append_buffer+0x22>
 80023b8:	60e2                	ld	ra,24(sp)
 80023ba:	6442                	ld	s0,16(sp)
 80023bc:	64a2                	ld	s1,8(sp)
 80023be:	6902                	ld	s2,0(sp)
 80023c0:	6105                	addi	sp,sp,32
 80023c2:	8082                	ret
 80023c4:	00044583          	lbu	a1,0(s0)
 80023c8:	854a                	mv	a0,s2
 80023ca:	0405                	addi	s0,s0,1
 80023cc:	f9bff0ef          	jal	8002366 <d_append_char>
 80023d0:	b7d5                	j	80023b4 <d_append_buffer+0x12>

00000000080023d2 <d_pack_length>:
 80023d2:	87aa                	mv	a5,a0
 80023d4:	02f00693          	li	a3,47
 80023d8:	4501                	li	a0,0
 80023da:	c791                	beqz	a5,80023e6 <d_pack_length+0x14>
 80023dc:	4398                	lw	a4,0(a5)
 80023de:	00d71463          	bne	a4,a3,80023e6 <d_pack_length+0x14>
 80023e2:	6b98                	ld	a4,16(a5)
 80023e4:	e311                	bnez	a4,80023e8 <d_pack_length+0x16>
 80023e6:	8082                	ret
 80023e8:	6f9c                	ld	a5,24(a5)
 80023ea:	2505                	addiw	a0,a0,1
 80023ec:	b7fd                	j	80023da <d_pack_length+0x8>

00000000080023ee <d_append_string>:
 80023ee:	1101                	addi	sp,sp,-32
 80023f0:	e822                	sd	s0,16(sp)
 80023f2:	842a                	mv	s0,a0
 80023f4:	852e                	mv	a0,a1
 80023f6:	ec06                	sd	ra,24(sp)
 80023f8:	e42e                	sd	a1,8(sp)
 80023fa:	580090ef          	jal	800b97a <strlen>
 80023fe:	862a                	mv	a2,a0
 8002400:	8522                	mv	a0,s0
 8002402:	6442                	ld	s0,16(sp)
 8002404:	65a2                	ld	a1,8(sp)
 8002406:	60e2                	ld	ra,24(sp)
 8002408:	6105                	addi	sp,sp,32
 800240a:	bf61                	j	80023a2 <d_append_buffer>

000000000800240c <d_append_num>:
 800240c:	7179                	addi	sp,sp,-48
 800240e:	f022                	sd	s0,32(sp)
 8002410:	862e                	mv	a2,a1
 8002412:	842a                	mv	s0,a0
 8002414:	00010597          	auipc	a1,0x10
 8002418:	3fc58593          	addi	a1,a1,1020 # 8012810 <__clzdi2+0x1e6>
 800241c:	850a                	mv	a0,sp
 800241e:	f406                	sd	ra,40(sp)
 8002420:	4dd080ef          	jal	800b0fc <sprintf>
 8002424:	858a                	mv	a1,sp
 8002426:	8522                	mv	a0,s0
 8002428:	fc7ff0ef          	jal	80023ee <d_append_string>
 800242c:	70a2                	ld	ra,40(sp)
 800242e:	7402                	ld	s0,32(sp)
 8002430:	6145                	addi	sp,sp,48
 8002432:	8082                	ret

0000000008002434 <d_print_lambda_parm_name>:
 8002434:	1101                	addi	sp,sp,-32
 8002436:	fa85879b          	addiw	a5,a1,-88
 800243a:	e822                	sd	s0,16(sp)
 800243c:	ec06                	sd	ra,24(sp)
 800243e:	0007869b          	sext.w	a3,a5
 8002442:	4709                	li	a4,2
 8002444:	8432                	mv	s0,a2
 8002446:	02d76563          	bltu	a4,a3,8002470 <d_print_lambda_parm_name+0x3c>
 800244a:	02079713          	slli	a4,a5,0x20
 800244e:	01d75793          	srli	a5,a4,0x1d
 8002452:	00011717          	auipc	a4,0x11
 8002456:	75670713          	addi	a4,a4,1878 # 8013ba8 <CSWTCH.165>
 800245a:	97ba                	add	a5,a5,a4
 800245c:	638c                	ld	a1,0(a5)
 800245e:	e42a                	sd	a0,8(sp)
 8002460:	f8fff0ef          	jal	80023ee <d_append_string>
 8002464:	85a2                	mv	a1,s0
 8002466:	6442                	ld	s0,16(sp)
 8002468:	6522                	ld	a0,8(sp)
 800246a:	60e2                	ld	ra,24(sp)
 800246c:	6105                	addi	sp,sp,32
 800246e:	bf79                	j	800240c <d_append_num>
 8002470:	4785                	li	a5,1
 8002472:	12f52823          	sw	a5,304(a0)
 8002476:	00010597          	auipc	a1,0x10
 800247a:	35258593          	addi	a1,a1,850 # 80127c8 <__clzdi2+0x19e>
 800247e:	b7c5                	j	800245e <d_print_lambda_parm_name+0x2a>

0000000008002480 <d_source_name>:
 8002480:	1101                	addi	sp,sp,-32
 8002482:	e822                	sd	s0,16(sp)
 8002484:	ec06                	sd	ra,24(sp)
 8002486:	e426                	sd	s1,8(sp)
 8002488:	e04a                	sd	s2,0(sp)
 800248a:	842a                	mv	s0,a0
 800248c:	b65ff0ef          	jal	8001ff0 <d_number>
 8002490:	0aa05363          	blez	a0,8002536 <d_source_name+0xb6>
 8002494:	01843903          	ld	s2,24(s0)
 8002498:	641c                	ld	a5,8(s0)
 800249a:	84aa                	mv	s1,a0
 800249c:	4501                	li	a0,0
 800249e:	412787b3          	sub	a5,a5,s2
 80024a2:	0897c063          	blt	a5,s1,8002522 <d_source_name+0xa2>
 80024a6:	4818                	lw	a4,16(s0)
 80024a8:	009907b3          	add	a5,s2,s1
 80024ac:	ec1c                	sd	a5,24(s0)
 80024ae:	8b11                	andi	a4,a4,4
 80024b0:	cb09                	beqz	a4,80024c2 <d_source_name+0x42>
 80024b2:	0007c683          	lbu	a3,0(a5)
 80024b6:	02400713          	li	a4,36
 80024ba:	00e69463          	bne	a3,a4,80024c2 <d_source_name+0x42>
 80024be:	0785                	addi	a5,a5,1
 80024c0:	ec1c                	sd	a5,24(s0)
 80024c2:	47a5                	li	a5,9
 80024c4:	0697d663          	bge	a5,s1,8002530 <d_source_name+0xb0>
 80024c8:	4621                	li	a2,8
 80024ca:	00010597          	auipc	a1,0x10
 80024ce:	34e58593          	addi	a1,a1,846 # 8012818 <__clzdi2+0x1ee>
 80024d2:	854a                	mv	a0,s2
 80024d4:	6df080ef          	jal	800b3b2 <memcmp>
 80024d8:	ed21                	bnez	a0,8002530 <d_source_name+0xb0>
 80024da:	00894703          	lbu	a4,8(s2)
 80024de:	03b00793          	li	a5,59
 80024e2:	fdc7071b          	addiw	a4,a4,-36
 80024e6:	0ff77713          	zext.b	a4,a4
 80024ea:	04e7e363          	bltu	a5,a4,8002530 <d_source_name+0xb0>
 80024ee:	4785                	li	a5,1
 80024f0:	17ee                	slli	a5,a5,0x3b
 80024f2:	40178793          	addi	a5,a5,1025
 80024f6:	00e7d7b3          	srl	a5,a5,a4
 80024fa:	8b85                	andi	a5,a5,1
 80024fc:	cb95                	beqz	a5,8002530 <d_source_name+0xb0>
 80024fe:	00994703          	lbu	a4,9(s2)
 8002502:	04e00793          	li	a5,78
 8002506:	02f71563          	bne	a4,a5,8002530 <d_source_name+0xb0>
 800250a:	443c                	lw	a5,72(s0)
 800250c:	4655                	li	a2,21
 800250e:	00010597          	auipc	a1,0x10
 8002512:	31a58593          	addi	a1,a1,794 # 8012828 <__clzdi2+0x1fe>
 8002516:	27d9                	addiw	a5,a5,22
 8002518:	9f85                	subw	a5,a5,s1
 800251a:	c43c                	sw	a5,72(s0)
 800251c:	8522                	mv	a0,s0
 800251e:	a83ff0ef          	jal	8001fa0 <d_make_name>
 8002522:	e028                	sd	a0,64(s0)
 8002524:	60e2                	ld	ra,24(sp)
 8002526:	6442                	ld	s0,16(sp)
 8002528:	64a2                	ld	s1,8(sp)
 800252a:	6902                	ld	s2,0(sp)
 800252c:	6105                	addi	sp,sp,32
 800252e:	8082                	ret
 8002530:	8626                	mv	a2,s1
 8002532:	85ca                	mv	a1,s2
 8002534:	b7e5                	j	800251c <d_source_name+0x9c>
 8002536:	4501                	li	a0,0
 8002538:	b7f5                	j	8002524 <d_source_name+0xa4>

000000000800253a <d_abi_tags>:
 800253a:	7179                	addi	sp,sp,-48
 800253c:	ec26                	sd	s1,24(sp)
 800253e:	6124                	ld	s1,64(a0)
 8002540:	f022                	sd	s0,32(sp)
 8002542:	e84a                	sd	s2,16(sp)
 8002544:	f406                	sd	ra,40(sp)
 8002546:	842a                	mv	s0,a0
 8002548:	862e                	mv	a2,a1
 800254a:	04200913          	li	s2,66
 800254e:	6c1c                	ld	a5,24(s0)
 8002550:	0007c703          	lbu	a4,0(a5)
 8002554:	01270a63          	beq	a4,s2,8002568 <d_abi_tags+0x2e>
 8002558:	e024                	sd	s1,64(s0)
 800255a:	70a2                	ld	ra,40(sp)
 800255c:	7402                	ld	s0,32(sp)
 800255e:	64e2                	ld	s1,24(sp)
 8002560:	6942                	ld	s2,16(sp)
 8002562:	8532                	mv	a0,a2
 8002564:	6145                	addi	sp,sp,48
 8002566:	8082                	ret
 8002568:	0785                	addi	a5,a5,1
 800256a:	ec1c                	sd	a5,24(s0)
 800256c:	8522                	mv	a0,s0
 800256e:	e432                	sd	a2,8(sp)
 8002570:	f11ff0ef          	jal	8002480 <d_source_name>
 8002574:	6622                	ld	a2,8(sp)
 8002576:	86aa                	mv	a3,a0
 8002578:	04d00593          	li	a1,77
 800257c:	8522                	mv	a0,s0
 800257e:	91fff0ef          	jal	8001e9c <d_make_comp>
 8002582:	862a                	mv	a2,a0
 8002584:	b7e9                	j	800254e <d_abi_tags+0x14>

0000000008002586 <d_maybe_module_name>:
 8002586:	7139                	addi	sp,sp,-64
 8002588:	f822                	sd	s0,48(sp)
 800258a:	f426                	sd	s1,40(sp)
 800258c:	f04a                	sd	s2,32(sp)
 800258e:	ec4e                	sd	s3,24(sp)
 8002590:	fc06                	sd	ra,56(sp)
 8002592:	842a                	mv	s0,a0
 8002594:	84ae                	mv	s1,a1
 8002596:	05700913          	li	s2,87
 800259a:	05000993          	li	s3,80
 800259e:	6c1c                	ld	a5,24(s0)
 80025a0:	0007c703          	lbu	a4,0(a5)
 80025a4:	01270463          	beq	a4,s2,80025ac <d_maybe_module_name+0x26>
 80025a8:	4505                	li	a0,1
 80025aa:	a835                	j	80025e6 <d_maybe_module_name+0x60>
 80025ac:	00178713          	addi	a4,a5,1
 80025b0:	ec18                	sd	a4,24(s0)
 80025b2:	0017c703          	lbu	a4,1(a5)
 80025b6:	05300593          	li	a1,83
 80025ba:	01371663          	bne	a4,s3,80025c6 <d_maybe_module_name+0x40>
 80025be:	0789                	addi	a5,a5,2
 80025c0:	ec1c                	sd	a5,24(s0)
 80025c2:	05400593          	li	a1,84
 80025c6:	6090                	ld	a2,0(s1)
 80025c8:	8522                	mv	a0,s0
 80025ca:	e42e                	sd	a1,8(sp)
 80025cc:	e032                	sd	a2,0(sp)
 80025ce:	eb3ff0ef          	jal	8002480 <d_source_name>
 80025d2:	65a2                	ld	a1,8(sp)
 80025d4:	6602                	ld	a2,0(sp)
 80025d6:	86aa                	mv	a3,a0
 80025d8:	8522                	mv	a0,s0
 80025da:	8c3ff0ef          	jal	8001e9c <d_make_comp>
 80025de:	e088                	sd	a0,0(s1)
 80025e0:	85aa                	mv	a1,a0
 80025e2:	e909                	bnez	a0,80025f4 <d_maybe_module_name+0x6e>
 80025e4:	4501                	li	a0,0
 80025e6:	70e2                	ld	ra,56(sp)
 80025e8:	7442                	ld	s0,48(sp)
 80025ea:	74a2                	ld	s1,40(sp)
 80025ec:	7902                	ld	s2,32(sp)
 80025ee:	69e2                	ld	s3,24(sp)
 80025f0:	6121                	addi	sp,sp,64
 80025f2:	8082                	ret
 80025f4:	8522                	mv	a0,s0
 80025f6:	c27ff0ef          	jal	800221c <d_add_substitution>
 80025fa:	f155                	bnez	a0,800259e <d_maybe_module_name+0x18>
 80025fc:	b7e5                	j	80025e4 <d_maybe_module_name+0x5e>

00000000080025fe <d_index_template_argument>:
 80025fe:	02f00793          	li	a5,47
 8002602:	0005d963          	bgez	a1,8002614 <d_index_template_argument+0x16>
 8002606:	8082                	ret
 8002608:	4118                	lw	a4,0(a0)
 800260a:	00f71963          	bne	a4,a5,800261c <d_index_template_argument+0x1e>
 800260e:	c589                	beqz	a1,8002618 <d_index_template_argument+0x1a>
 8002610:	6d08                	ld	a0,24(a0)
 8002612:	35fd                	addiw	a1,a1,-1
 8002614:	f975                	bnez	a0,8002608 <d_index_template_argument+0xa>
 8002616:	8082                	ret
 8002618:	6908                	ld	a0,16(a0)
 800261a:	8082                	ret
 800261c:	4501                	li	a0,0
 800261e:	8082                	ret

0000000008002620 <d_lookup_template_argument>:
 8002620:	12053783          	ld	a5,288(a0)
 8002624:	c789                	beqz	a5,800262e <d_lookup_template_argument+0xe>
 8002626:	679c                	ld	a5,8(a5)
 8002628:	498c                	lw	a1,16(a1)
 800262a:	6f88                	ld	a0,24(a5)
 800262c:	bfc9                	j	80025fe <d_index_template_argument>
 800262e:	4785                	li	a5,1
 8002630:	12f52823          	sw	a5,304(a0)
 8002634:	4501                	li	a0,0
 8002636:	8082                	ret

0000000008002638 <d_find_pack>:
 8002638:	7179                	addi	sp,sp,-48
 800263a:	f022                	sd	s0,32(sp)
 800263c:	ec26                	sd	s1,24(sp)
 800263e:	e84a                	sd	s2,16(sp)
 8002640:	e44e                	sd	s3,8(sp)
 8002642:	f406                	sd	ra,40(sp)
 8002644:	84aa                	mv	s1,a0
 8002646:	842e                	mv	s0,a1
 8002648:	49a1                	li	s3,8
 800264a:	00011917          	auipc	s2,0x11
 800264e:	17a90913          	addi	s2,s2,378 # 80137c4 <_ZTVSt20bad_array_new_length+0x74>
 8002652:	c83d                	beqz	s0,80026c8 <d_find_pack+0x90>
 8002654:	401c                	lw	a5,0(s0)
 8002656:	04f9f363          	bgeu	s3,a5,800269c <d_find_pack+0x64>
 800265a:	4761                	li	a4,24
 800265c:	06e78663          	beq	a5,a4,80026c8 <d_find_pack+0x90>
 8002660:	fd97879b          	addiw	a5,a5,-39
 8002664:	03500713          	li	a4,53
 8002668:	02f76363          	bltu	a4,a5,800268e <d_find_pack+0x56>
 800266c:	4705                	li	a4,1
 800266e:	00f716b3          	sll	a3,a4,a5
 8002672:	04001737          	lui	a4,0x4001
 8002676:	ce370713          	addi	a4,a4,-797 # 4000ce3 <_start-0x3fff31d>
 800267a:	073e                	slli	a4,a4,0xf
 800267c:	0705                	addi	a4,a4,1
 800267e:	0732                	slli	a4,a4,0xc
 8002680:	80170713          	addi	a4,a4,-2047
 8002684:	8f75                	and	a4,a4,a3
 8002686:	e329                	bnez	a4,80026c8 <d_find_pack+0x90>
 8002688:	4731                	li	a4,12
 800268a:	00e78763          	beq	a5,a4,8002698 <d_find_pack+0x60>
 800268e:	680c                	ld	a1,16(s0)
 8002690:	8526                	mv	a0,s1
 8002692:	fa7ff0ef          	jal	8002638 <d_find_pack>
 8002696:	e115                	bnez	a0,80026ba <d_find_pack+0x82>
 8002698:	6c00                	ld	s0,24(s0)
 800269a:	bf65                	j	8002652 <d_find_pack+0x1a>
 800269c:	078a                	slli	a5,a5,0x2
 800269e:	97ca                	add	a5,a5,s2
 80026a0:	439c                	lw	a5,0(a5)
 80026a2:	97ca                	add	a5,a5,s2
 80026a4:	8782                	jr	a5
 80026a6:	85a2                	mv	a1,s0
 80026a8:	8526                	mv	a0,s1
 80026aa:	f77ff0ef          	jal	8002620 <d_lookup_template_argument>
 80026ae:	cd09                	beqz	a0,80026c8 <d_find_pack+0x90>
 80026b0:	4118                	lw	a4,0(a0)
 80026b2:	02f00793          	li	a5,47
 80026b6:	00f71963          	bne	a4,a5,80026c8 <d_find_pack+0x90>
 80026ba:	70a2                	ld	ra,40(sp)
 80026bc:	7402                	ld	s0,32(sp)
 80026be:	64e2                	ld	s1,24(sp)
 80026c0:	6942                	ld	s2,16(sp)
 80026c2:	69a2                	ld	s3,8(sp)
 80026c4:	6145                	addi	sp,sp,48
 80026c6:	8082                	ret
 80026c8:	4501                	li	a0,0
 80026ca:	bfc5                	j	80026ba <d_find_pack+0x82>

00000000080026cc <d_growable_string_callback_adapter>:
 80026cc:	7179                	addi	sp,sp,-48
 80026ce:	6618                	ld	a4,8(a2)
 80026d0:	ec26                	sd	s1,24(sp)
 80026d2:	6a04                	ld	s1,16(a2)
 80026d4:	00158793          	addi	a5,a1,1
 80026d8:	f022                	sd	s0,32(sp)
 80026da:	e84a                	sd	s2,16(sp)
 80026dc:	e44e                	sd	s3,8(sp)
 80026de:	97ba                	add	a5,a5,a4
 80026e0:	f406                	sd	ra,40(sp)
 80026e2:	4e18                	lw	a4,24(a2)
 80026e4:	89aa                	mv	s3,a0
 80026e6:	892e                	mv	s2,a1
 80026e8:	8432                	mv	s0,a2
 80026ea:	04f4f263          	bgeu	s1,a5,800272e <d_growable_string_callback_adapter+0x62>
 80026ee:	e70d                	bnez	a4,8002718 <d_growable_string_callback_adapter+0x4c>
 80026f0:	e091                	bnez	s1,80026f4 <d_growable_string_callback_adapter+0x28>
 80026f2:	4489                	li	s1,2
 80026f4:	02f4e963          	bltu	s1,a5,8002726 <d_growable_string_callback_adapter+0x5a>
 80026f8:	6008                	ld	a0,0(s0)
 80026fa:	85a6                	mv	a1,s1
 80026fc:	004080ef          	jal	800a700 <realloc>
 8002700:	e50d                	bnez	a0,800272a <d_growable_string_callback_adapter+0x5e>
 8002702:	6008                	ld	a0,0(s0)
 8002704:	1e3070ef          	jal	800a0e6 <free>
 8002708:	4785                	li	a5,1
 800270a:	00043023          	sd	zero,0(s0)
 800270e:	00043423          	sd	zero,8(s0)
 8002712:	00043823          	sd	zero,16(s0)
 8002716:	cc1c                	sw	a5,24(s0)
 8002718:	70a2                	ld	ra,40(sp)
 800271a:	7402                	ld	s0,32(sp)
 800271c:	64e2                	ld	s1,24(sp)
 800271e:	6942                	ld	s2,16(sp)
 8002720:	69a2                	ld	s3,8(sp)
 8002722:	6145                	addi	sp,sp,48
 8002724:	8082                	ret
 8002726:	0486                	slli	s1,s1,0x1
 8002728:	b7f1                	j	80026f4 <d_growable_string_callback_adapter+0x28>
 800272a:	e008                	sd	a0,0(s0)
 800272c:	e804                	sd	s1,16(s0)
 800272e:	4c1c                	lw	a5,24(s0)
 8002730:	f7e5                	bnez	a5,8002718 <d_growable_string_callback_adapter+0x4c>
 8002732:	641c                	ld	a5,8(s0)
 8002734:	6008                	ld	a0,0(s0)
 8002736:	864a                	mv	a2,s2
 8002738:	85ce                	mv	a1,s3
 800273a:	953e                	add	a0,a0,a5
 800273c:	0f8090ef          	jal	800b834 <memcpy>
 8002740:	601c                	ld	a5,0(s0)
 8002742:	6418                	ld	a4,8(s0)
 8002744:	97ca                	add	a5,a5,s2
 8002746:	97ba                	add	a5,a5,a4
 8002748:	00078023          	sb	zero,0(a5)
 800274c:	641c                	ld	a5,8(s0)
 800274e:	97ca                	add	a5,a5,s2
 8002750:	e41c                	sd	a5,8(s0)
 8002752:	b7d9                	j	8002718 <d_growable_string_callback_adapter+0x4c>

0000000008002754 <is_designated_init>:
 8002754:	411c                	lw	a5,0(a0)
 8002756:	03800713          	li	a4,56
 800275a:	9bf5                	andi	a5,a5,-3
 800275c:	02e79e63          	bne	a5,a4,8002798 <is_designated_init+0x44>
 8002760:	691c                	ld	a5,16(a0)
 8002762:	06400713          	li	a4,100
 8002766:	4501                	li	a0,0
 8002768:	6b9c                	ld	a5,16(a5)
 800276a:	639c                	ld	a5,0(a5)
 800276c:	0007c683          	lbu	a3,0(a5)
 8002770:	02e69563          	bne	a3,a4,800279a <is_designated_init+0x46>
 8002774:	0017c783          	lbu	a5,1(a5)
 8002778:	02000713          	li	a4,32
 800277c:	fa87879b          	addiw	a5,a5,-88
 8002780:	0ff7f793          	zext.b	a5,a5
 8002784:	00f76b63          	bltu	a4,a5,800279a <is_designated_init+0x46>
 8002788:	08001537          	lui	a0,0x8001
 800278c:	0516                	slli	a0,a0,0x5
 800278e:	0505                	addi	a0,a0,1 # 8001001 <_ZSt14__relocate_a_1IiiENSt9enable_ifIXsrSt24__is_bitwise_relocatableIT_vE5valueEPS2_E4typeES4_S4_S4_RSaIT0_E+0x59>
 8002790:	00f55533          	srl	a0,a0,a5
 8002794:	8905                	andi	a0,a0,1
 8002796:	8082                	ret
 8002798:	4501                	li	a0,0
 800279a:	8082                	ret

000000000800279c <op_is_new_cast.isra.0>:
 800279c:	611c                	ld	a5,0(a0)
 800279e:	06300713          	li	a4,99
 80027a2:	4501                	li	a0,0
 80027a4:	0017c683          	lbu	a3,1(a5)
 80027a8:	02e69363          	bne	a3,a4,80027ce <op_is_new_cast.isra.0+0x32>
 80027ac:	0007c783          	lbu	a5,0(a5)
 80027b0:	4685                	li	a3,1
 80027b2:	4505                	li	a0,1
 80027b4:	f8e7871b          	addiw	a4,a5,-114
 80027b8:	0ff77713          	zext.b	a4,a4
 80027bc:	00e6f963          	bgeu	a3,a4,80027ce <op_is_new_cast.isra.0+0x32>
 80027c0:	f9d7879b          	addiw	a5,a5,-99
 80027c4:	0ff7f793          	zext.b	a5,a5
 80027c8:	0027b513          	sltiu	a0,a5,2
 80027cc:	8082                	ret
 80027ce:	8082                	ret

00000000080027d0 <d_print_comp_inner>:
 80027d0:	7111                	addi	sp,sp,-256
 80027d2:	f9a2                	sd	s0,240(sp)
 80027d4:	fd86                	sd	ra,248(sp)
 80027d6:	f5a6                	sd	s1,232(sp)
 80027d8:	f1ca                	sd	s2,224(sp)
 80027da:	edce                	sd	s3,216(sp)
 80027dc:	e9d2                	sd	s4,208(sp)
 80027de:	e5d6                	sd	s5,200(sp)
 80027e0:	e1da                	sd	s6,192(sp)
 80027e2:	fd5e                	sd	s7,184(sp)
 80027e4:	f962                	sd	s8,176(sp)
 80027e6:	f566                	sd	s9,168(sp)
 80027e8:	f16a                	sd	s10,160(sp)
 80027ea:	842a                	mv	s0,a0
 80027ec:	e609                	bnez	a2,80027f6 <d_print_comp_inner+0x26>
 80027ee:	4785                	li	a5,1
 80027f0:	12f42823          	sw	a5,304(s0)
 80027f4:	ac11                	j	8002a08 <d_print_comp_inner+0x238>
 80027f6:	13052903          	lw	s2,304(a0)
 80027fa:	20091763          	bnez	s2,8002a08 <d_print_comp_inner+0x238>
 80027fe:	00062983          	lw	s3,0(a2)
 8002802:	05c00793          	li	a5,92
 8002806:	84b2                	mv	s1,a2
 8002808:	ff37e3e3          	bltu	a5,s3,80027ee <d_print_comp_inner+0x1e>
 800280c:	00011717          	auipc	a4,0x11
 8002810:	fdc70713          	addi	a4,a4,-36 # 80137e8 <_ZTVSt20bad_array_new_length+0x98>
 8002814:	00299793          	slli	a5,s3,0x2
 8002818:	97ba                	add	a5,a5,a4
 800281a:	439c                	lw	a5,0(a5)
 800281c:	97ba                	add	a5,a5,a4
 800281e:	8782                	jr	a5
 8002820:	6a10                	ld	a2,16(a2)
 8002822:	45c5                	li	a1,17
 8002824:	074010ef          	jal	8003898 <d_print_comp>
 8002828:	00010597          	auipc	a1,0x10
 800282c:	01858593          	addi	a1,a1,24 # 8012840 <__clzdi2+0x216>
 8002830:	8522                	mv	a0,s0
 8002832:	bbdff0ef          	jal	80023ee <d_append_string>
 8002836:	6c90                	ld	a2,24(s1)
 8002838:	45c5                	li	a1,17
 800283a:	8522                	mv	a0,s0
 800283c:	05c010ef          	jal	8003898 <d_print_comp>
 8002840:	4f30006f          	j	8003532 <d_print_comp_inner+0xd62>
 8002844:	05b00593          	li	a1,91
 8002848:	b1fff0ef          	jal	8002366 <d_append_char>
 800284c:	00010917          	auipc	s2,0x10
 8002850:	ffc90913          	addi	s2,s2,-4 # 8012848 <__clzdi2+0x21e>
 8002854:	6890                	ld	a2,16(s1)
 8002856:	45c5                	li	a1,17
 8002858:	8522                	mv	a0,s0
 800285a:	03e010ef          	jal	8003898 <d_print_comp>
 800285e:	6c84                	ld	s1,24(s1)
 8002860:	4c0489e3          	beqz	s1,8003532 <d_print_comp_inner+0xd62>
 8002864:	85ca                	mv	a1,s2
 8002866:	8522                	mv	a0,s0
 8002868:	b87ff0ef          	jal	80023ee <d_append_string>
 800286c:	b7e5                	j	8002854 <d_print_comp_inner+0x84>
 800286e:	6a10                	ld	a2,16(a2)
 8002870:	45c5                	li	a1,17
 8002872:	026010ef          	jal	8003898 <d_print_comp>
 8002876:	04000593          	li	a1,64
 800287a:	8522                	mv	a0,s0
 800287c:	aebff0ef          	jal	8002366 <d_append_char>
 8002880:	a839                	j	800289e <d_print_comp_inner+0xce>
 8002882:	6a10                	ld	a2,16(a2)
 8002884:	c601                	beqz	a2,800288c <d_print_comp_inner+0xbc>
 8002886:	45c5                	li	a1,17
 8002888:	010010ef          	jal	8003898 <d_print_comp>
 800288c:	4098                	lw	a4,0(s1)
 800288e:	05400793          	li	a5,84
 8002892:	00f70863          	beq	a4,a5,80028a2 <d_print_comp_inner+0xd2>
 8002896:	689c                	ld	a5,16(s1)
 8002898:	02e00593          	li	a1,46
 800289c:	fff9                	bnez	a5,800287a <d_print_comp_inner+0xaa>
 800289e:	6c90                	ld	a2,24(s1)
 80028a0:	a891                	j	80028f4 <d_print_comp_inner+0x124>
 80028a2:	03a00593          	li	a1,58
 80028a6:	bfd1                	j	800287a <d_print_comp_inner+0xaa>
 80028a8:	6a10                	ld	a2,16(a2)
 80028aa:	45c5                	li	a1,17
 80028ac:	7ed000ef          	jal	8003898 <d_print_comp>
 80028b0:	00010597          	auipc	a1,0x10
 80028b4:	fa058593          	addi	a1,a1,-96 # 8012850 <__clzdi2+0x226>
 80028b8:	8522                	mv	a0,s0
 80028ba:	b35ff0ef          	jal	80023ee <d_append_string>
 80028be:	6c84                	ld	s1,24(s1)
 80028c0:	04800793          	li	a5,72
 80028c4:	4098                	lw	a4,0(s1)
 80028c6:	02f71663          	bne	a4,a5,80028f2 <d_print_comp_inner+0x122>
 80028ca:	00010597          	auipc	a1,0x10
 80028ce:	f8e58593          	addi	a1,a1,-114 # 8012858 <__clzdi2+0x22e>
 80028d2:	8522                	mv	a0,s0
 80028d4:	b1bff0ef          	jal	80023ee <d_append_string>
 80028d8:	4c8c                	lw	a1,24(s1)
 80028da:	8522                	mv	a0,s0
 80028dc:	2585                	addiw	a1,a1,1
 80028de:	b2fff0ef          	jal	800240c <d_append_num>
 80028e2:	00010597          	auipc	a1,0x10
 80028e6:	f8658593          	addi	a1,a1,-122 # 8012868 <__clzdi2+0x23e>
 80028ea:	8522                	mv	a0,s0
 80028ec:	b03ff0ef          	jal	80023ee <d_append_string>
 80028f0:	6884                	ld	s1,16(s1)
 80028f2:	8626                	mv	a2,s1
 80028f4:	8522                	mv	a0,s0
 80028f6:	744e                	ld	s0,240(sp)
 80028f8:	70ee                	ld	ra,248(sp)
 80028fa:	74ae                	ld	s1,232(sp)
 80028fc:	790e                	ld	s2,224(sp)
 80028fe:	69ee                	ld	s3,216(sp)
 8002900:	6a4e                	ld	s4,208(sp)
 8002902:	6aae                	ld	s5,200(sp)
 8002904:	6b0e                	ld	s6,192(sp)
 8002906:	7bea                	ld	s7,184(sp)
 8002908:	7c4a                	ld	s8,176(sp)
 800290a:	7caa                	ld	s9,168(sp)
 800290c:	7d0a                	ld	s10,160(sp)
 800290e:	45c5                	li	a1,17
 8002910:	6111                	addi	sp,sp,256
 8002912:	7870006f          	j	8003898 <d_print_comp>
 8002916:	01063903          	ld	s2,16(a2)
 800291a:	02010a93          	addi	s5,sp,32
 800291e:	12853b03          	ld	s6,296(a0)
 8002922:	4981                	li	s3,0
 8002924:	12053423          	sd	zero,296(a0)
 8002928:	8c56                	mv	s8,s5
 800292a:	4d11                	li	s10,4
 800292c:	ec0901e3          	beqz	s2,80027ee <d_print_comp_inner+0x1e>
 8002930:	eba98fe3          	beq	s3,s10,80027ee <d_print_comp_inner+0x1e>
 8002934:	000aa823          	sw	zero,16(s5)
 8002938:	12843783          	ld	a5,296(s0)
 800293c:	12043b83          	ld	s7,288(s0)
 8002940:	00092c83          	lw	s9,0(s2)
 8002944:	00fab023          	sd	a5,0(s5)
 8002948:	13543423          	sd	s5,296(s0)
 800294c:	012ab423          	sd	s2,8(s5)
 8002950:	017abc23          	sd	s7,24(s5)
 8002954:	8566                	mv	a0,s9
 8002956:	00198a1b          	addiw	s4,s3,1
 800295a:	d00ff0ef          	jal	8001e5a <is_fnqual_component_type>
 800295e:	000a099b          	sext.w	s3,s4
 8002962:	020a8a93          	addi	s5,s5,32
 8002966:	ed5d                	bnez	a0,8002a24 <d_print_comp_inner+0x254>
 8002968:	4789                	li	a5,2
 800296a:	02fc9963          	bne	s9,a5,800299c <d_print_comp_inner+0x1cc>
 800296e:	01893903          	ld	s2,24(s2)
 8002972:	04800793          	li	a5,72
 8002976:	00092703          	lw	a4,0(s2)
 800297a:	00f71463          	bne	a4,a5,8002982 <d_print_comp_inner+0x1b2>
 800297e:	01093903          	ld	s2,16(s2)
 8002982:	020a1793          	slli	a5,s4,0x20
 8002986:	01b7da13          	srli	s4,a5,0x1b
 800298a:	9a62                	add	s4,s4,s8
 800298c:	4c91                	li	s9,4
 800298e:	e60900e3          	beqz	s2,80027ee <d_print_comp_inner+0x1e>
 8002992:	00092503          	lw	a0,0(s2)
 8002996:	cc4ff0ef          	jal	8001e5a <is_fnqual_component_type>
 800299a:	e941                	bnez	a0,8002a2a <d_print_comp_inner+0x25a>
 800299c:	00092703          	lw	a4,0(s2)
 80029a0:	4791                	li	a5,4
 80029a2:	00f71763          	bne	a4,a5,80029b0 <d_print_comp_inner+0x1e0>
 80029a6:	081c                	addi	a5,sp,16
 80029a8:	e85e                	sd	s7,16(sp)
 80029aa:	12f43023          	sd	a5,288(s0)
 80029ae:	ec4a                	sd	s2,24(sp)
 80029b0:	6c90                	ld	a2,24(s1)
 80029b2:	45c5                	li	a1,17
 80029b4:	8522                	mv	a0,s0
 80029b6:	6e3000ef          	jal	8003898 <d_print_comp>
 80029ba:	00092703          	lw	a4,0(s2)
 80029be:	4791                	li	a5,4
 80029c0:	00f71563          	bne	a4,a5,80029ca <d_print_comp_inner+0x1fa>
 80029c4:	67c2                	ld	a5,16(sp)
 80029c6:	12f43023          	sd	a5,288(s0)
 80029ca:	fff9849b          	addiw	s1,s3,-1
 80029ce:	02049793          	slli	a5,s1,0x20
 80029d2:	0004899b          	sext.w	s3,s1
 80029d6:	01b7d493          	srli	s1,a5,0x1b
 80029da:	09048793          	addi	a5,s1,144
 80029de:	0818                	addi	a4,sp,16
 80029e0:	00e784b3          	add	s1,a5,a4
 80029e4:	f904a783          	lw	a5,-112(s1)
 80029e8:	ef81                	bnez	a5,8002a00 <d_print_comp_inner+0x230>
 80029ea:	02000593          	li	a1,32
 80029ee:	8522                	mv	a0,s0
 80029f0:	977ff0ef          	jal	8002366 <d_append_char>
 80029f4:	f884b603          	ld	a2,-120(s1)
 80029f8:	45c5                	li	a1,17
 80029fa:	8522                	mv	a0,s0
 80029fc:	703000ef          	jal	80038fe <d_print_mod>
 8002a00:	fc0995e3          	bnez	s3,80029ca <d_print_comp_inner+0x1fa>
 8002a04:	13643423          	sd	s6,296(s0)
 8002a08:	70ee                	ld	ra,248(sp)
 8002a0a:	744e                	ld	s0,240(sp)
 8002a0c:	74ae                	ld	s1,232(sp)
 8002a0e:	790e                	ld	s2,224(sp)
 8002a10:	69ee                	ld	s3,216(sp)
 8002a12:	6a4e                	ld	s4,208(sp)
 8002a14:	6aae                	ld	s5,200(sp)
 8002a16:	6b0e                	ld	s6,192(sp)
 8002a18:	7bea                	ld	s7,184(sp)
 8002a1a:	7c4a                	ld	s8,176(sp)
 8002a1c:	7caa                	ld	s9,168(sp)
 8002a1e:	7d0a                	ld	s10,160(sp)
 8002a20:	6111                	addi	sp,sp,256
 8002a22:	8082                	ret
 8002a24:	01093903          	ld	s2,16(s2)
 8002a28:	b711                	j	800292c <d_print_comp_inner+0x15c>
 8002a2a:	dd9982e3          	beq	s3,s9,80027ee <d_print_comp_inner+0x1e>
 8002a2e:	fff98a9b          	addiw	s5,s3,-1
 8002a32:	020a9793          	slli	a5,s5,0x20
 8002a36:	01b7da93          	srli	s5,a5,0x1b
 8002a3a:	090a8793          	addi	a5,s5,144
 8002a3e:	0818                	addi	a4,sp,16
 8002a40:	00e78d33          	add	s10,a5,a4
 8002a44:	8552                	mv	a0,s4
 8002a46:	02000613          	li	a2,32
 8002a4a:	f80d0593          	addi	a1,s10,-128
 8002a4e:	9ae2                	add	s5,s5,s8
 8002a50:	5e5080ef          	jal	800b834 <memcpy>
 8002a54:	015a3023          	sd	s5,0(s4)
 8002a58:	13443423          	sd	s4,296(s0)
 8002a5c:	f92d3423          	sd	s2,-120(s10)
 8002a60:	f80d2823          	sw	zero,-112(s10)
 8002a64:	01093903          	ld	s2,16(s2)
 8002a68:	f97d3c23          	sd	s7,-104(s10)
 8002a6c:	2985                	addiw	s3,s3,1
 8002a6e:	020a0a13          	addi	s4,s4,32
 8002a72:	bf31                	j	800298e <d_print_comp_inner+0x1be>
 8002a74:	17053903          	ld	s2,368(a0)
 8002a78:	16c43823          	sd	a2,368(s0)
 8002a7c:	6a10                	ld	a2,16(a2)
 8002a7e:	12853983          	ld	s3,296(a0)
 8002a82:	45c5                	li	a1,17
 8002a84:	12053423          	sd	zero,296(a0)
 8002a88:	611000ef          	jal	8003898 <d_print_comp>
 8002a8c:	10844703          	lbu	a4,264(s0)
 8002a90:	03c00793          	li	a5,60
 8002a94:	00f71763          	bne	a4,a5,8002aa2 <d_print_comp_inner+0x2d2>
 8002a98:	02000593          	li	a1,32
 8002a9c:	8522                	mv	a0,s0
 8002a9e:	8c9ff0ef          	jal	8002366 <d_append_char>
 8002aa2:	03c00593          	li	a1,60
 8002aa6:	8522                	mv	a0,s0
 8002aa8:	8bfff0ef          	jal	8002366 <d_append_char>
 8002aac:	6c90                	ld	a2,24(s1)
 8002aae:	45c5                	li	a1,17
 8002ab0:	8522                	mv	a0,s0
 8002ab2:	5e7000ef          	jal	8003898 <d_print_comp>
 8002ab6:	10844703          	lbu	a4,264(s0)
 8002aba:	03e00793          	li	a5,62
 8002abe:	00f71763          	bne	a4,a5,8002acc <d_print_comp_inner+0x2fc>
 8002ac2:	02000593          	li	a1,32
 8002ac6:	8522                	mv	a0,s0
 8002ac8:	89fff0ef          	jal	8002366 <d_append_char>
 8002acc:	03e00593          	li	a1,62
 8002ad0:	8522                	mv	a0,s0
 8002ad2:	895ff0ef          	jal	8002366 <d_append_char>
 8002ad6:	13343423          	sd	s3,296(s0)
 8002ada:	17243823          	sd	s2,368(s0)
 8002ade:	b72d                	j	8002a08 <d_print_comp_inner+0x238>
 8002ae0:	6a10                	ld	a2,16(a2)
 8002ae2:	13852783          	lw	a5,312(a0)
 8002ae6:	00160713          	addi	a4,a2,1
 8002aea:	04f75663          	bge	a4,a5,8002b36 <d_print_comp_inner+0x366>
 8002aee:	12053783          	ld	a5,288(a0)
 8002af2:	2601                	sext.w	a2,a2
 8002af4:	8732                	mv	a4,a2
 8002af6:	679c                	ld	a5,8(a5)
 8002af8:	6b9c                	ld	a5,16(a5)
 8002afa:	ce078ae3          	beqz	a5,80027ee <d_print_comp_inner+0x1e>
 8002afe:	eb0d                	bnez	a4,8002b30 <d_print_comp_inner+0x360>
 8002b00:	4394                	lw	a3,0(a5)
 8002b02:	05b00713          	li	a4,91
 8002b06:	00e69563          	bne	a3,a4,8002b10 <d_print_comp_inner+0x340>
 8002b0a:	6b9c                	ld	a5,16(a5)
 8002b0c:	ce0781e3          	beqz	a5,80027ee <d_print_comp_inner+0x1e>
 8002b10:	8522                	mv	a0,s0
 8002b12:	744e                	ld	s0,240(sp)
 8002b14:	70ee                	ld	ra,248(sp)
 8002b16:	74ae                	ld	s1,232(sp)
 8002b18:	790e                	ld	s2,224(sp)
 8002b1a:	69ee                	ld	s3,216(sp)
 8002b1c:	6a4e                	ld	s4,208(sp)
 8002b1e:	6aae                	ld	s5,200(sp)
 8002b20:	6b0e                	ld	s6,192(sp)
 8002b22:	7bea                	ld	s7,184(sp)
 8002b24:	7c4a                	ld	s8,176(sp)
 8002b26:	7caa                	ld	s9,168(sp)
 8002b28:	7d0a                	ld	s10,160(sp)
 8002b2a:	438c                	lw	a1,0(a5)
 8002b2c:	6111                	addi	sp,sp,256
 8002b2e:	b219                	j	8002434 <d_print_lambda_parm_name>
 8002b30:	6f9c                	ld	a5,24(a5)
 8002b32:	377d                	addiw	a4,a4,-1
 8002b34:	b7d9                	j	8002afa <d_print_comp_inner+0x32a>
 8002b36:	cb95                	beqz	a5,8002b6a <d_print_comp_inner+0x39a>
 8002b38:	00010597          	auipc	a1,0x10
 8002b3c:	d3858593          	addi	a1,a1,-712 # 8012870 <__clzdi2+0x246>
 8002b40:	4615                	li	a2,5
 8002b42:	861ff0ef          	jal	80023a2 <d_append_buffer>
 8002b46:	688c                	ld	a1,16(s1)
 8002b48:	2585                	addiw	a1,a1,1
 8002b4a:	8522                	mv	a0,s0
 8002b4c:	744e                	ld	s0,240(sp)
 8002b4e:	70ee                	ld	ra,248(sp)
 8002b50:	74ae                	ld	s1,232(sp)
 8002b52:	790e                	ld	s2,224(sp)
 8002b54:	69ee                	ld	s3,216(sp)
 8002b56:	6a4e                	ld	s4,208(sp)
 8002b58:	6aae                	ld	s5,200(sp)
 8002b5a:	6b0e                	ld	s6,192(sp)
 8002b5c:	7bea                	ld	s7,184(sp)
 8002b5e:	7c4a                	ld	s8,176(sp)
 8002b60:	7caa                	ld	s9,168(sp)
 8002b62:	7d0a                	ld	s10,160(sp)
 8002b64:	6111                	addi	sp,sp,256
 8002b66:	8a7ff06f          	j	800240c <d_append_num>
 8002b6a:	85a6                	mv	a1,s1
 8002b6c:	ab5ff0ef          	jal	8002620 <d_lookup_template_argument>
 8002b70:	862a                	mv	a2,a0
 8002b72:	c6050ee3          	beqz	a0,80027ee <d_print_comp_inner+0x1e>
 8002b76:	4118                	lw	a4,0(a0)
 8002b78:	02f00793          	li	a5,47
 8002b7c:	00f71963          	bne	a4,a5,8002b8e <d_print_comp_inner+0x3be>
 8002b80:	13c42583          	lw	a1,316(s0)
 8002b84:	a7bff0ef          	jal	80025fe <d_index_template_argument>
 8002b88:	862a                	mv	a2,a0
 8002b8a:	c60502e3          	beqz	a0,80027ee <d_print_comp_inner+0x1e>
 8002b8e:	12043483          	ld	s1,288(s0)
 8002b92:	45c5                	li	a1,17
 8002b94:	8522                	mv	a0,s0
 8002b96:	609c                	ld	a5,0(s1)
 8002b98:	12f43023          	sd	a5,288(s0)
 8002b9c:	4fd000ef          	jal	8003898 <d_print_comp>
 8002ba0:	12943023          	sd	s1,288(s0)
 8002ba4:	b595                	j	8002a08 <d_print_comp_inner+0x238>
 8002ba6:	00010597          	auipc	a1,0x10
 8002baa:	cd258593          	addi	a1,a1,-814 # 8012878 <__clzdi2+0x24e>
 8002bae:	8522                	mv	a0,s0
 8002bb0:	83fff0ef          	jal	80023ee <d_append_string>
 8002bb4:	a2bd                	j	8002d22 <d_print_comp_inner+0x552>
 8002bb6:	07e00593          	li	a1,126
 8002bba:	b1c1                	j	800287a <d_print_comp_inner+0xaa>
 8002bbc:	00010597          	auipc	a1,0x10
 8002bc0:	cdc58593          	addi	a1,a1,-804 # 8012898 <__clzdi2+0x26e>
 8002bc4:	b7ed                	j	8002bae <d_print_comp_inner+0x3de>
 8002bc6:	00010597          	auipc	a1,0x10
 8002bca:	cea58593          	addi	a1,a1,-790 # 80128b0 <__clzdi2+0x286>
 8002bce:	b7c5                	j	8002bae <d_print_comp_inner+0x3de>
 8002bd0:	00010597          	auipc	a1,0x10
 8002bd4:	cf058593          	addi	a1,a1,-784 # 80128c0 <__clzdi2+0x296>
 8002bd8:	bfd9                	j	8002bae <d_print_comp_inner+0x3de>
 8002bda:	00010597          	auipc	a1,0x10
 8002bde:	cf658593          	addi	a1,a1,-778 # 80128d0 <__clzdi2+0x2a6>
 8002be2:	80dff0ef          	jal	80023ee <d_append_string>
 8002be6:	6890                	ld	a2,16(s1)
 8002be8:	45c5                	li	a1,17
 8002bea:	8522                	mv	a0,s0
 8002bec:	4ad000ef          	jal	8003898 <d_print_comp>
 8002bf0:	00010597          	auipc	a1,0x10
 8002bf4:	d0058593          	addi	a1,a1,-768 # 80128f0 <__clzdi2+0x2c6>
 8002bf8:	8522                	mv	a0,s0
 8002bfa:	ff4ff0ef          	jal	80023ee <d_append_string>
 8002bfe:	b145                	j	800289e <d_print_comp_inner+0xce>
 8002c00:	00010597          	auipc	a1,0x10
 8002c04:	cf858593          	addi	a1,a1,-776 # 80128f8 <__clzdi2+0x2ce>
 8002c08:	b75d                	j	8002bae <d_print_comp_inner+0x3de>
 8002c0a:	00010597          	auipc	a1,0x10
 8002c0e:	cfe58593          	addi	a1,a1,-770 # 8012908 <__clzdi2+0x2de>
 8002c12:	bf71                	j	8002bae <d_print_comp_inner+0x3de>
 8002c14:	00010597          	auipc	a1,0x10
 8002c18:	d0c58593          	addi	a1,a1,-756 # 8012920 <__clzdi2+0x2f6>
 8002c1c:	bf49                	j	8002bae <d_print_comp_inner+0x3de>
 8002c1e:	00010597          	auipc	a1,0x10
 8002c22:	d1a58593          	addi	a1,a1,-742 # 8012938 <__clzdi2+0x30e>
 8002c26:	b761                	j	8002bae <d_print_comp_inner+0x3de>
 8002c28:	00010597          	auipc	a1,0x10
 8002c2c:	d2858593          	addi	a1,a1,-728 # 8012950 <__clzdi2+0x326>
 8002c30:	bfbd                	j	8002bae <d_print_comp_inner+0x3de>
 8002c32:	00010597          	auipc	a1,0x10
 8002c36:	d3658593          	addi	a1,a1,-714 # 8012968 <__clzdi2+0x33e>
 8002c3a:	bf95                	j	8002bae <d_print_comp_inner+0x3de>
 8002c3c:	00010597          	auipc	a1,0x10
 8002c40:	d4c58593          	addi	a1,a1,-692 # 8012988 <__clzdi2+0x35e>
 8002c44:	b7ad                	j	8002bae <d_print_comp_inner+0x3de>
 8002c46:	00010597          	auipc	a1,0x10
 8002c4a:	d5258593          	addi	a1,a1,-686 # 8012998 <__clzdi2+0x36e>
 8002c4e:	b785                	j	8002bae <d_print_comp_inner+0x3de>
 8002c50:	00010597          	auipc	a1,0x10
 8002c54:	d6058593          	addi	a1,a1,-672 # 80129b0 <__clzdi2+0x386>
 8002c58:	bf99                	j	8002bae <d_print_comp_inner+0x3de>
 8002c5a:	00010597          	auipc	a1,0x10
 8002c5e:	d6e58593          	addi	a1,a1,-658 # 80129c8 <__clzdi2+0x39e>
 8002c62:	b7b1                	j	8002bae <d_print_comp_inner+0x3de>
 8002c64:	00010597          	auipc	a1,0x10
 8002c68:	d8458593          	addi	a1,a1,-636 # 80129e8 <__clzdi2+0x3be>
 8002c6c:	f82ff0ef          	jal	80023ee <d_append_string>
 8002c70:	6c90                	ld	a2,24(s1)
 8002c72:	45c5                	li	a1,17
 8002c74:	8522                	mv	a0,s0
 8002c76:	423000ef          	jal	8003898 <d_print_comp>
 8002c7a:	00010597          	auipc	a1,0x10
 8002c7e:	c8658593          	addi	a1,a1,-890 # 8012900 <__clzdi2+0x2d6>
 8002c82:	b735                	j	8002bae <d_print_comp_inner+0x3de>
 8002c84:	00010597          	auipc	a1,0x10
 8002c88:	d7c58593          	addi	a1,a1,-644 # 8012a00 <__clzdi2+0x3d6>
 8002c8c:	b70d                	j	8002bae <d_print_comp_inner+0x3de>
 8002c8e:	00010597          	auipc	a1,0x10
 8002c92:	d8a58593          	addi	a1,a1,-630 # 8012a18 <__clzdi2+0x3ee>
 8002c96:	bf21                	j	8002bae <d_print_comp_inner+0x3de>
 8002c98:	00010597          	auipc	a1,0x10
 8002c9c:	d9858593          	addi	a1,a1,-616 # 8012a30 <__clzdi2+0x406>
 8002ca0:	b739                	j	8002bae <d_print_comp_inner+0x3de>
 8002ca2:	4e10                	lw	a2,24(a2)
 8002ca4:	688c                	ld	a1,16(s1)
 8002ca6:	8522                	mv	a0,s0
 8002ca8:	744e                	ld	s0,240(sp)
 8002caa:	70ee                	ld	ra,248(sp)
 8002cac:	74ae                	ld	s1,232(sp)
 8002cae:	790e                	ld	s2,224(sp)
 8002cb0:	69ee                	ld	s3,216(sp)
 8002cb2:	6a4e                	ld	s4,208(sp)
 8002cb4:	6aae                	ld	s5,200(sp)
 8002cb6:	6b0e                	ld	s6,192(sp)
 8002cb8:	7bea                	ld	s7,184(sp)
 8002cba:	7c4a                	ld	s8,176(sp)
 8002cbc:	7caa                	ld	s9,168(sp)
 8002cbe:	7d0a                	ld	s10,160(sp)
 8002cc0:	6111                	addi	sp,sp,256
 8002cc2:	ee0ff06f          	j	80023a2 <d_append_buffer>
 8002cc6:	12853603          	ld	a2,296(a0)
 8002cca:	4709                	li	a4,2
 8002ccc:	e229                	bnez	a2,8002d0e <d_print_comp_inner+0x53e>
 8002cce:	12843783          	ld	a5,296(s0)
 8002cd2:	f426                	sd	s1,40(sp)
 8002cd4:	d802                	sw	zero,48(sp)
 8002cd6:	f03e                	sd	a5,32(sp)
 8002cd8:	101c                	addi	a5,sp,32
 8002cda:	12f43423          	sd	a5,296(s0)
 8002cde:	12043783          	ld	a5,288(s0)
 8002ce2:	fc3e                	sd	a5,56(sp)
 8002ce4:	e211                	bnez	a2,8002ce8 <d_print_comp_inner+0x518>
 8002ce6:	6890                	ld	a2,16(s1)
 8002ce8:	45c5                	li	a1,17
 8002cea:	8522                	mv	a0,s0
 8002cec:	3ad000ef          	jal	8003898 <d_print_comp>
 8002cf0:	57c2                	lw	a5,48(sp)
 8002cf2:	e791                	bnez	a5,8002cfe <d_print_comp_inner+0x52e>
 8002cf4:	8626                	mv	a2,s1
 8002cf6:	45c5                	li	a1,17
 8002cf8:	8522                	mv	a0,s0
 8002cfa:	405000ef          	jal	80038fe <d_print_mod>
 8002cfe:	7782                	ld	a5,32(sp)
 8002d00:	12f43423          	sd	a5,296(s0)
 8002d04:	d00902e3          	beqz	s2,8002a08 <d_print_comp_inner+0x238>
 8002d08:	13443023          	sd	s4,288(s0)
 8002d0c:	b9f5                	j	8002a08 <d_print_comp_inner+0x238>
 8002d0e:	4a1c                	lw	a5,16(a2)
 8002d10:	eb99                	bnez	a5,8002d26 <d_print_comp_inner+0x556>
 8002d12:	661c                	ld	a5,8(a2)
 8002d14:	439c                	lw	a5,0(a5)
 8002d16:	fe77869b          	addiw	a3,a5,-25
 8002d1a:	10d76063          	bltu	a4,a3,8002e1a <d_print_comp_inner+0x64a>
 8002d1e:	00f99463          	bne	s3,a5,8002d26 <d_print_comp_inner+0x556>
 8002d22:	6890                	ld	a2,16(s1)
 8002d24:	bec1                	j	80028f4 <d_print_comp_inner+0x124>
 8002d26:	6210                	ld	a2,0(a2)
 8002d28:	b755                	j	8002ccc <d_print_comp_inner+0x4fc>
 8002d2a:	6a0c                	ld	a1,16(a2)
 8002d2c:	13852783          	lw	a5,312(a0)
 8002d30:	4198                	lw	a4,0(a1)
 8002d32:	e7f1                	bnez	a5,8002dfe <d_print_comp_inner+0x62e>
 8002d34:	4795                	li	a5,5
 8002d36:	4901                	li	s2,0
 8002d38:	0cf71363          	bne	a4,a5,8002dfe <d_print_comp_inner+0x62e>
 8002d3c:	15852703          	lw	a4,344(a0)
 8002d40:	4781                	li	a5,0
 8002d42:	0007869b          	sext.w	a3,a5
 8002d46:	04e6cb63          	blt	a3,a4,8002d9c <d_print_comp_inner+0x5cc>
 8002d4a:	15c42783          	lw	a5,348(s0)
 8002d4e:	aaf750e3          	bge	a4,a5,80027ee <d_print_comp_inner+0x1e>
 8002d52:	15043783          	ld	a5,336(s0)
 8002d56:	00471693          	slli	a3,a4,0x4
 8002d5a:	12043603          	ld	a2,288(s0)
 8002d5e:	2705                	addiw	a4,a4,1
 8002d60:	97b6                	add	a5,a5,a3
 8002d62:	14e42c23          	sw	a4,344(s0)
 8002d66:	e38c                	sd	a1,0(a5)
 8002d68:	07a1                	addi	a5,a5,8
 8002d6a:	e631                	bnez	a2,8002db6 <d_print_comp_inner+0x5e6>
 8002d6c:	0007b023          	sd	zero,0(a5)
 8002d70:	4901                	li	s2,0
 8002d72:	8522                	mv	a0,s0
 8002d74:	8adff0ef          	jal	8002620 <d_lookup_template_argument>
 8002d78:	85aa                	mv	a1,a0
 8002d7a:	cd01                	beqz	a0,8002d92 <d_print_comp_inner+0x5c2>
 8002d7c:	4118                	lw	a4,0(a0)
 8002d7e:	02f00793          	li	a5,47
 8002d82:	06f71e63          	bne	a4,a5,8002dfe <d_print_comp_inner+0x62e>
 8002d86:	13c42583          	lw	a1,316(s0)
 8002d8a:	875ff0ef          	jal	80025fe <d_index_template_argument>
 8002d8e:	85aa                	mv	a1,a0
 8002d90:	e53d                	bnez	a0,8002dfe <d_print_comp_inner+0x62e>
 8002d92:	a4090ee3          	beqz	s2,80027ee <d_print_comp_inner+0x1e>
 8002d96:	13443023          	sd	s4,288(s0)
 8002d9a:	bc91                	j	80027ee <d_print_comp_inner+0x1e>
 8002d9c:	15043683          	ld	a3,336(s0)
 8002da0:	00479613          	slli	a2,a5,0x4
 8002da4:	0785                	addi	a5,a5,1
 8002da6:	96b2                	add	a3,a3,a2
 8002da8:	6290                	ld	a2,0(a3)
 8002daa:	f8c59ce3          	bne	a1,a2,8002d42 <d_print_comp_inner+0x572>
 8002dae:	14843703          	ld	a4,328(s0)
 8002db2:	87ba                	mv	a5,a4
 8002db4:	a82d                	j	8002dee <d_print_comp_inner+0x61e>
 8002db6:	16842683          	lw	a3,360(s0)
 8002dba:	16c42703          	lw	a4,364(s0)
 8002dbe:	a2e6d8e3          	bge	a3,a4,80027ee <d_print_comp_inner+0x1e>
 8002dc2:	16043703          	ld	a4,352(s0)
 8002dc6:	00469513          	slli	a0,a3,0x4
 8002dca:	2685                	addiw	a3,a3,1
 8002dcc:	16d42423          	sw	a3,360(s0)
 8002dd0:	6614                	ld	a3,8(a2)
 8002dd2:	972a                	add	a4,a4,a0
 8002dd4:	e714                	sd	a3,8(a4)
 8002dd6:	e398                	sd	a4,0(a5)
 8002dd8:	6210                	ld	a2,0(a2)
 8002dda:	87ba                	mv	a5,a4
 8002ddc:	b779                	j	8002d6a <d_print_comp_inner+0x59a>
 8002dde:	6390                	ld	a2,0(a5)
 8002de0:	f8b608e3          	beq	a2,a1,8002d70 <d_print_comp_inner+0x5a0>
 8002de4:	00961463          	bne	a2,s1,8002dec <d_print_comp_inner+0x61c>
 8002de8:	f8e794e3          	bne	a5,a4,8002d70 <d_print_comp_inner+0x5a0>
 8002dec:	679c                	ld	a5,8(a5)
 8002dee:	fbe5                	bnez	a5,8002dde <d_print_comp_inner+0x60e>
 8002df0:	669c                	ld	a5,8(a3)
 8002df2:	12043a03          	ld	s4,288(s0)
 8002df6:	4905                	li	s2,1
 8002df8:	12f43023          	sd	a5,288(s0)
 8002dfc:	bf9d                	j	8002d72 <d_print_comp_inner+0x5a2>
 8002dfe:	419c                	lw	a5,0(a1)
 8002e00:	02300713          	li	a4,35
 8002e04:	00e78e63          	beq	a5,a4,8002e20 <d_print_comp_inner+0x650>
 8002e08:	00f98c63          	beq	s3,a5,8002e20 <d_print_comp_inner+0x650>
 8002e0c:	02400713          	li	a4,36
 8002e10:	4601                	li	a2,0
 8002e12:	eae79ee3          	bne	a5,a4,8002cce <d_print_comp_inner+0x4fe>
 8002e16:	6990                	ld	a2,16(a1)
 8002e18:	bd5d                	j	8002cce <d_print_comp_inner+0x4fe>
 8002e1a:	4901                	li	s2,0
 8002e1c:	4601                	li	a2,0
 8002e1e:	bd45                	j	8002cce <d_print_comp_inner+0x4fe>
 8002e20:	84ae                	mv	s1,a1
 8002e22:	bfed                	j	8002e1c <d_print_comp_inner+0x64c>
 8002e24:	6a1c                	ld	a5,16(a2)
 8002e26:	4790                	lw	a2,8(a5)
 8002e28:	638c                	ld	a1,0(a5)
 8002e2a:	bdb5                	j	8002ca6 <d_print_comp_inner+0x4d6>
 8002e2c:	6a1c                	ld	a5,16(a2)
 8002e2e:	638c                	ld	a1,0(a5)
 8002e30:	4790                	lw	a2,8(a5)
 8002e32:	d70ff0ef          	jal	80023a2 <d_append_buffer>
 8002e36:	01849583          	lh	a1,24(s1)
 8002e3a:	8522                	mv	a0,s0
 8002e3c:	dd0ff0ef          	jal	800240c <d_append_num>
 8002e40:	01a4c783          	lbu	a5,26(s1)
 8002e44:	bc0782e3          	beqz	a5,8002a08 <d_print_comp_inner+0x238>
 8002e48:	4605                	li	a2,1
 8002e4a:	01a48593          	addi	a1,s1,26
 8002e4e:	bda1                	j	8002ca6 <d_print_comp_inner+0x4d6>
 8002e50:	6a10                	ld	a2,16(a2)
 8002e52:	12853783          	ld	a5,296(a0)
 8002e56:	ca05                	beqz	a2,8002e86 <d_print_comp_inner+0x6b6>
 8002e58:	f03e                	sd	a5,32(sp)
 8002e5a:	101c                	addi	a5,sp,32
 8002e5c:	12f53423          	sd	a5,296(a0)
 8002e60:	12053783          	ld	a5,288(a0)
 8002e64:	45c5                	li	a1,17
 8002e66:	f426                	sd	s1,40(sp)
 8002e68:	fc3e                	sd	a5,56(sp)
 8002e6a:	d802                	sw	zero,48(sp)
 8002e6c:	22d000ef          	jal	8003898 <d_print_comp>
 8002e70:	7782                	ld	a5,32(sp)
 8002e72:	12f43423          	sd	a5,296(s0)
 8002e76:	57c2                	lw	a5,48(sp)
 8002e78:	b80798e3          	bnez	a5,8002a08 <d_print_comp_inner+0x238>
 8002e7c:	02000593          	li	a1,32
 8002e80:	8522                	mv	a0,s0
 8002e82:	ce4ff0ef          	jal	8002366 <d_append_char>
 8002e86:	12843683          	ld	a3,296(s0)
 8002e8a:	8522                	mv	a0,s0
 8002e8c:	744e                	ld	s0,240(sp)
 8002e8e:	70ee                	ld	ra,248(sp)
 8002e90:	790e                	ld	s2,224(sp)
 8002e92:	69ee                	ld	s3,216(sp)
 8002e94:	6a4e                	ld	s4,208(sp)
 8002e96:	6aae                	ld	s5,200(sp)
 8002e98:	6b0e                	ld	s6,192(sp)
 8002e9a:	7bea                	ld	s7,184(sp)
 8002e9c:	7c4a                	ld	s8,176(sp)
 8002e9e:	7caa                	ld	s9,168(sp)
 8002ea0:	7d0a                	ld	s10,160(sp)
 8002ea2:	8626                	mv	a2,s1
 8002ea4:	74ae                	ld	s1,232(sp)
 8002ea6:	45c5                	li	a1,17
 8002ea8:	6111                	addi	sp,sp,256
 8002eaa:	3a30006f          	j	8003a4c <d_print_function_type>
 8002eae:	12853a83          	ld	s5,296(a0)
 8002eb2:	12053783          	ld	a5,288(a0)
 8002eb6:	02010b13          	addi	s6,sp,32
 8002eba:	f056                	sd	s5,32(sp)
 8002ebc:	13653423          	sd	s6,296(a0)
 8002ec0:	f432                	sd	a2,40(sp)
 8002ec2:	d802                	sw	zero,48(sp)
 8002ec4:	fc3e                	sd	a5,56(sp)
 8002ec6:	89d6                	mv	s3,s5
 8002ec8:	4905                	li	s2,1
 8002eca:	4c09                	li	s8,2
 8002ecc:	4c8d                	li	s9,3
 8002ece:	4d05                	li	s10,1
 8002ed0:	00098863          	beqz	s3,8002ee0 <d_print_comp_inner+0x710>
 8002ed4:	0089b783          	ld	a5,8(s3)
 8002ed8:	439c                	lw	a5,0(a5)
 8002eda:	379d                	addiw	a5,a5,-25
 8002edc:	02fc7763          	bgeu	s8,a5,8002f0a <d_print_comp_inner+0x73a>
 8002ee0:	6c90                	ld	a2,24(s1)
 8002ee2:	45c5                	li	a1,17
 8002ee4:	8522                	mv	a0,s0
 8002ee6:	1b3000ef          	jal	8003898 <d_print_comp>
 8002eea:	57c2                	lw	a5,48(sp)
 8002eec:	13543423          	sd	s5,296(s0)
 8002ef0:	4985                	li	s3,1
 8002ef2:	b0079be3          	bnez	a5,8002a08 <d_print_comp_inner+0x238>
 8002ef6:	0529ec63          	bltu	s3,s2,8002f4e <d_print_comp_inner+0x77e>
 8002efa:	12843683          	ld	a3,296(s0)
 8002efe:	8626                	mv	a2,s1
 8002f00:	45c5                	li	a1,17
 8002f02:	8522                	mv	a0,s0
 8002f04:	53f000ef          	jal	8003c42 <d_print_array_type>
 8002f08:	b601                	j	8002a08 <d_print_comp_inner+0x238>
 8002f0a:	0109a783          	lw	a5,16(s3)
 8002f0e:	ef8d                	bnez	a5,8002f48 <d_print_comp_inner+0x778>
 8002f10:	8d2cefe3          	bltu	s9,s2,80027ee <d_print_comp_inner+0x1e>
 8002f14:	02091793          	slli	a5,s2,0x20
 8002f18:	01b7da13          	srli	s4,a5,0x1b
 8002f1c:	090a0793          	addi	a5,s4,144
 8002f20:	0818                	addi	a4,sp,16
 8002f22:	00e78bb3          	add	s7,a5,a4
 8002f26:	02000613          	li	a2,32
 8002f2a:	85ce                	mv	a1,s3
 8002f2c:	f80b8513          	addi	a0,s7,-128
 8002f30:	105080ef          	jal	800b834 <memcpy>
 8002f34:	12843783          	ld	a5,296(s0)
 8002f38:	9a5a                	add	s4,s4,s6
 8002f3a:	13443423          	sd	s4,296(s0)
 8002f3e:	f8fbb023          	sd	a5,-128(s7)
 8002f42:	01a9a823          	sw	s10,16(s3)
 8002f46:	2905                	addiw	s2,s2,1
 8002f48:	0009b983          	ld	s3,0(s3)
 8002f4c:	b751                	j	8002ed0 <d_print_comp_inner+0x700>
 8002f4e:	fff9079b          	addiw	a5,s2,-1
 8002f52:	02079713          	slli	a4,a5,0x20
 8002f56:	0007891b          	sext.w	s2,a5
 8002f5a:	01b75793          	srli	a5,a4,0x1b
 8002f5e:	09078793          	addi	a5,a5,144
 8002f62:	0818                	addi	a4,sp,16
 8002f64:	97ba                	add	a5,a5,a4
 8002f66:	f887b603          	ld	a2,-120(a5)
 8002f6a:	45c5                	li	a1,17
 8002f6c:	8522                	mv	a0,s0
 8002f6e:	191000ef          	jal	80038fe <d_print_mod>
 8002f72:	b751                	j	8002ef6 <d_print_comp_inner+0x726>
 8002f74:	12853783          	ld	a5,296(a0)
 8002f78:	f432                	sd	a2,40(sp)
 8002f7a:	6e10                	ld	a2,24(a2)
 8002f7c:	f03e                	sd	a5,32(sp)
 8002f7e:	101c                	addi	a5,sp,32
 8002f80:	12f53423          	sd	a5,296(a0)
 8002f84:	12053783          	ld	a5,288(a0)
 8002f88:	45c5                	li	a1,17
 8002f8a:	d802                	sw	zero,48(sp)
 8002f8c:	fc3e                	sd	a5,56(sp)
 8002f8e:	10b000ef          	jal	8003898 <d_print_comp>
 8002f92:	57c2                	lw	a5,48(sp)
 8002f94:	e791                	bnez	a5,8002fa0 <d_print_comp_inner+0x7d0>
 8002f96:	8626                	mv	a2,s1
 8002f98:	45c5                	li	a1,17
 8002f9a:	8522                	mv	a0,s0
 8002f9c:	163000ef          	jal	80038fe <d_print_mod>
 8002fa0:	7782                	ld	a5,32(sp)
 8002fa2:	12f43423          	sd	a5,296(s0)
 8002fa6:	b48d                	j	8002a08 <d_print_comp_inner+0x238>
 8002fa8:	6a10                	ld	a2,16(a2)
 8002faa:	c601                	beqz	a2,8002fb2 <d_print_comp_inner+0x7e2>
 8002fac:	45c5                	li	a1,17
 8002fae:	0eb000ef          	jal	8003898 <d_print_comp>
 8002fb2:	6c9c                	ld	a5,24(s1)
 8002fb4:	a4078ae3          	beqz	a5,8002a08 <d_print_comp_inner+0x238>
 8002fb8:	10043703          	ld	a4,256(s0)
 8002fbc:	0fd00793          	li	a5,253
 8002fc0:	00e7f563          	bgeu	a5,a4,8002fca <d_print_comp_inner+0x7fa>
 8002fc4:	8522                	mv	a0,s0
 8002fc6:	b6cff0ef          	jal	8002332 <d_print_flush>
 8002fca:	00010597          	auipc	a1,0x10
 8002fce:	87e58593          	addi	a1,a1,-1922 # 8012848 <__clzdi2+0x21e>
 8002fd2:	8522                	mv	a0,s0
 8002fd4:	c1aff0ef          	jal	80023ee <d_append_string>
 8002fd8:	6c90                	ld	a2,24(s1)
 8002fda:	45c5                	li	a1,17
 8002fdc:	8522                	mv	a0,s0
 8002fde:	10043903          	ld	s2,256(s0)
 8002fe2:	14043983          	ld	s3,320(s0)
 8002fe6:	0b3000ef          	jal	8003898 <d_print_comp>
 8002fea:	14043783          	ld	a5,320(s0)
 8002fee:	a1379de3          	bne	a5,s3,8002a08 <d_print_comp_inner+0x238>
 8002ff2:	10043783          	ld	a5,256(s0)
 8002ff6:	a12799e3          	bne	a5,s2,8002a08 <d_print_comp_inner+0x238>
 8002ffa:	17f9                	addi	a5,a5,-2
 8002ffc:	10f43023          	sd	a5,256(s0)
 8003000:	b421                	j	8002a08 <d_print_comp_inner+0x238>
 8003002:	6a10                	ld	a2,16(a2)
 8003004:	6c84                	ld	s1,24(s1)
 8003006:	c601                	beqz	a2,800300e <d_print_comp_inner+0x83e>
 8003008:	45c5                	li	a1,17
 800300a:	08f000ef          	jal	8003898 <d_print_comp>
 800300e:	07b00593          	li	a1,123
 8003012:	8522                	mv	a0,s0
 8003014:	b52ff0ef          	jal	8002366 <d_append_char>
 8003018:	8626                	mv	a2,s1
 800301a:	45c5                	li	a1,17
 800301c:	8522                	mv	a0,s0
 800301e:	07b000ef          	jal	8003898 <d_print_comp>
 8003022:	07d00593          	li	a1,125
 8003026:	ab61                	j	80035be <d_print_comp_inner+0xdee>
 8003028:	01063903          	ld	s2,16(a2)
 800302c:	00010597          	auipc	a1,0x10
 8003030:	a2458593          	addi	a1,a1,-1500 # 8012a50 <__clzdi2+0x426>
 8003034:	01092483          	lw	s1,16(s2)
 8003038:	bb6ff0ef          	jal	80023ee <d_append_string>
 800303c:	00893783          	ld	a5,8(s2)
 8003040:	4765                	li	a4,25
 8003042:	0007c783          	lbu	a5,0(a5)
 8003046:	f9f7879b          	addiw	a5,a5,-97
 800304a:	0ff7f793          	zext.b	a5,a5
 800304e:	00f76763          	bltu	a4,a5,800305c <d_print_comp_inner+0x88c>
 8003052:	02000593          	li	a1,32
 8003056:	8522                	mv	a0,s0
 8003058:	b0eff0ef          	jal	8002366 <d_append_char>
 800305c:	00893583          	ld	a1,8(s2)
 8003060:	009587b3          	add	a5,a1,s1
 8003064:	fff7c703          	lbu	a4,-1(a5)
 8003068:	02000793          	li	a5,32
 800306c:	00f71363          	bne	a4,a5,8003072 <d_print_comp_inner+0x8a2>
 8003070:	34fd                	addiw	s1,s1,-1
 8003072:	8626                	mv	a2,s1
 8003074:	b90d                	j	8002ca6 <d_print_comp_inner+0x4d6>
 8003076:	00010597          	auipc	a1,0x10
 800307a:	9ea58593          	addi	a1,a1,-1558 # 8012a60 <__clzdi2+0x436>
 800307e:	bead                	j	8002bf8 <d_print_comp_inner+0x428>
 8003080:	00010597          	auipc	a1,0x10
 8003084:	9e058593          	addi	a1,a1,-1568 # 8012a60 <__clzdi2+0x436>
 8003088:	b66ff0ef          	jal	80023ee <d_append_string>
 800308c:	17043783          	ld	a5,368(s0)
 8003090:	cb81                	beqz	a5,80030a0 <d_print_comp_inner+0x8d0>
 8003092:	12043703          	ld	a4,288(s0)
 8003096:	f43e                	sd	a5,40(sp)
 8003098:	f03a                	sd	a4,32(sp)
 800309a:	1018                	addi	a4,sp,32
 800309c:	12e43023          	sd	a4,288(s0)
 80030a0:	6890                	ld	a2,16(s1)
 80030a2:	4791                	li	a5,4
 80030a4:	4218                	lw	a4,0(a2)
 80030a6:	00f70e63          	beq	a4,a5,80030c2 <d_print_comp_inner+0x8f2>
 80030aa:	45c5                	li	a1,17
 80030ac:	8522                	mv	a0,s0
 80030ae:	7ea000ef          	jal	8003898 <d_print_comp>
 80030b2:	17043783          	ld	a5,368(s0)
 80030b6:	940789e3          	beqz	a5,8002a08 <d_print_comp_inner+0x238>
 80030ba:	7782                	ld	a5,32(sp)
 80030bc:	12f43023          	sd	a5,288(s0)
 80030c0:	b2a1                	j	8002a08 <d_print_comp_inner+0x238>
 80030c2:	6a10                	ld	a2,16(a2)
 80030c4:	45c5                	li	a1,17
 80030c6:	8522                	mv	a0,s0
 80030c8:	7d0000ef          	jal	8003898 <d_print_comp>
 80030cc:	17043783          	ld	a5,368(s0)
 80030d0:	c781                	beqz	a5,80030d8 <d_print_comp_inner+0x908>
 80030d2:	7782                	ld	a5,32(sp)
 80030d4:	12f43023          	sd	a5,288(s0)
 80030d8:	10844703          	lbu	a4,264(s0)
 80030dc:	03c00793          	li	a5,60
 80030e0:	00f71763          	bne	a4,a5,80030ee <d_print_comp_inner+0x91e>
 80030e4:	02000593          	li	a1,32
 80030e8:	8522                	mv	a0,s0
 80030ea:	a7cff0ef          	jal	8002366 <d_append_char>
 80030ee:	03c00593          	li	a1,60
 80030f2:	8522                	mv	a0,s0
 80030f4:	a72ff0ef          	jal	8002366 <d_append_char>
 80030f8:	689c                	ld	a5,16(s1)
 80030fa:	45c5                	li	a1,17
 80030fc:	8522                	mv	a0,s0
 80030fe:	6f90                	ld	a2,24(a5)
 8003100:	798000ef          	jal	8003898 <d_print_comp>
 8003104:	10844703          	lbu	a4,264(s0)
 8003108:	03e00793          	li	a5,62
 800310c:	00f71763          	bne	a4,a5,800311a <d_print_comp_inner+0x94a>
 8003110:	02000593          	li	a1,32
 8003114:	8522                	mv	a0,s0
 8003116:	a50ff0ef          	jal	8002366 <d_append_char>
 800311a:	03e00593          	li	a1,62
 800311e:	8522                	mv	a0,s0
 8003120:	a46ff0ef          	jal	8002366 <d_append_char>
 8003124:	b0d5                	j	8002a08 <d_print_comp_inner+0x238>
 8003126:	6a10                	ld	a2,16(a2)
 8003128:	8522                	mv	a0,s0
 800312a:	744e                	ld	s0,240(sp)
 800312c:	70ee                	ld	ra,248(sp)
 800312e:	74ae                	ld	s1,232(sp)
 8003130:	790e                	ld	s2,224(sp)
 8003132:	69ee                	ld	s3,216(sp)
 8003134:	6a4e                	ld	s4,208(sp)
 8003136:	6aae                	ld	s5,200(sp)
 8003138:	6b0e                	ld	s6,192(sp)
 800313a:	7bea                	ld	s7,184(sp)
 800313c:	7c4a                	ld	s8,176(sp)
 800313e:	7caa                	ld	s9,168(sp)
 8003140:	7d0a                	ld	s10,160(sp)
 8003142:	45c5                	li	a1,17
 8003144:	6111                	addi	sp,sp,256
 8003146:	39f0006f          	j	8003ce4 <d_print_expr_op>
 800314a:	01063a03          	ld	s4,16(a2)
 800314e:	03200713          	li	a4,50
 8003152:	6e04                	ld	s1,24(a2)
 8003154:	000a2783          	lw	a5,0(s4)
 8003158:	0ae79d63          	bne	a5,a4,8003212 <d_print_comp_inner+0xa42>
 800315c:	010a3783          	ld	a5,16(s4)
 8003160:	00010597          	auipc	a1,0x10
 8003164:	91058593          	addi	a1,a1,-1776 # 8012a70 <__clzdi2+0x446>
 8003168:	0007b983          	ld	s3,0(a5)
 800316c:	854e                	mv	a0,s3
 800316e:	15d080ef          	jal	800baca <strcmp>
 8003172:	409c                	lw	a5,0(s1)
 8003174:	e121                	bnez	a0,80031b4 <d_print_comp_inner+0x9e4>
 8003176:	470d                	li	a4,3
 8003178:	02e79e63          	bne	a5,a4,80031b4 <d_print_comp_inner+0x9e4>
 800317c:	689c                	ld	a5,16(s1)
 800317e:	4705                	li	a4,1
 8003180:	4394                	lw	a3,0(a5)
 8003182:	00e69963          	bne	a3,a4,8003194 <d_print_comp_inner+0x9c4>
 8003186:	6c98                	ld	a4,24(s1)
 8003188:	4314                	lw	a3,0(a4)
 800318a:	02900713          	li	a4,41
 800318e:	00e69363          	bne	a3,a4,8003194 <d_print_comp_inner+0x9c4>
 8003192:	84be                	mv	s1,a5
 8003194:	00010597          	auipc	a1,0x10
 8003198:	8e458593          	addi	a1,a1,-1820 # 8012a78 <__clzdi2+0x44e>
 800319c:	854e                	mv	a0,s3
 800319e:	12d080ef          	jal	800baca <strcmp>
 80031a2:	e505                	bnez	a0,80031ca <d_print_comp_inner+0x9fa>
 80031a4:	85a6                	mv	a1,s1
 80031a6:	8522                	mv	a0,s0
 80031a8:	c90ff0ef          	jal	8002638 <d_find_pack>
 80031ac:	a26ff0ef          	jal	80023d2 <d_pack_length>
 80031b0:	85aa                	mv	a1,a0
 80031b2:	ba61                	j	8002b4a <d_print_comp_inner+0x37a>
 80031b4:	03900713          	li	a4,57
 80031b8:	fce79ee3          	bne	a5,a4,8003194 <d_print_comp_inner+0x9c4>
 80031bc:	6890                	ld	a2,16(s1)
 80031be:	45c5                	li	a1,17
 80031c0:	8522                	mv	a0,s0
 80031c2:	33b000ef          	jal	8003cfc <d_print_subexpr>
 80031c6:	8652                	mv	a2,s4
 80031c8:	b785                	j	8003128 <d_print_comp_inner+0x958>
 80031ca:	00010597          	auipc	a1,0x10
 80031ce:	8b658593          	addi	a1,a1,-1866 # 8012a80 <__clzdi2+0x456>
 80031d2:	854e                	mv	a0,s3
 80031d4:	0f7080ef          	jal	800baca <strcmp>
 80031d8:	892a                	mv	s2,a0
 80031da:	e129                	bnez	a0,800321c <d_print_comp_inner+0xa4c>
 80031dc:	02f00993          	li	s3,47
 80031e0:	04c00a13          	li	s4,76
 80031e4:	c481                	beqz	s1,80031ec <d_print_comp_inner+0xa1c>
 80031e6:	409c                	lw	a5,0(s1)
 80031e8:	01378463          	beq	a5,s3,80031f0 <d_print_comp_inner+0xa20>
 80031ec:	85ca                	mv	a1,s2
 80031ee:	bab1                	j	8002b4a <d_print_comp_inner+0x37a>
 80031f0:	689c                	ld	a5,16(s1)
 80031f2:	dfed                	beqz	a5,80031ec <d_print_comp_inner+0xa1c>
 80031f4:	4398                	lw	a4,0(a5)
 80031f6:	01471c63          	bne	a4,s4,800320e <d_print_comp_inner+0xa3e>
 80031fa:	6b8c                	ld	a1,16(a5)
 80031fc:	8522                	mv	a0,s0
 80031fe:	c3aff0ef          	jal	8002638 <d_find_pack>
 8003202:	9d0ff0ef          	jal	80023d2 <d_pack_length>
 8003206:	0125093b          	addw	s2,a0,s2
 800320a:	6c84                	ld	s1,24(s1)
 800320c:	bfe1                	j	80031e4 <d_print_comp_inner+0xa14>
 800320e:	2905                	addiw	s2,s2,1
 8003210:	bfed                	j	800320a <d_print_comp_inner+0xa3a>
 8003212:	03400713          	li	a4,52
 8003216:	02e78c63          	beq	a5,a4,800324e <d_print_comp_inner+0xa7e>
 800321a:	4981                	li	s3,0
 800321c:	8652                	mv	a2,s4
 800321e:	45c5                	li	a1,17
 8003220:	8522                	mv	a0,s0
 8003222:	2c3000ef          	jal	8003ce4 <d_print_expr_op>
 8003226:	04099463          	bnez	s3,800326e <d_print_comp_inner+0xa9e>
 800322a:	8522                	mv	a0,s0
 800322c:	744e                	ld	s0,240(sp)
 800322e:	70ee                	ld	ra,248(sp)
 8003230:	790e                	ld	s2,224(sp)
 8003232:	69ee                	ld	s3,216(sp)
 8003234:	6a4e                	ld	s4,208(sp)
 8003236:	6aae                	ld	s5,200(sp)
 8003238:	6b0e                	ld	s6,192(sp)
 800323a:	7bea                	ld	s7,184(sp)
 800323c:	7c4a                	ld	s8,176(sp)
 800323e:	7caa                	ld	s9,168(sp)
 8003240:	7d0a                	ld	s10,160(sp)
 8003242:	8626                	mv	a2,s1
 8003244:	74ae                	ld	s1,232(sp)
 8003246:	45c5                	li	a1,17
 8003248:	6111                	addi	sp,sp,256
 800324a:	2b30006f          	j	8003cfc <d_print_subexpr>
 800324e:	02800593          	li	a1,40
 8003252:	914ff0ef          	jal	8002366 <d_append_char>
 8003256:	010a3603          	ld	a2,16(s4)
 800325a:	8522                	mv	a0,s0
 800325c:	45c5                	li	a1,17
 800325e:	63a000ef          	jal	8003898 <d_print_comp>
 8003262:	02900593          	li	a1,41
 8003266:	8522                	mv	a0,s0
 8003268:	8feff0ef          	jal	8002366 <d_append_char>
 800326c:	bf7d                	j	800322a <d_print_comp_inner+0xa5a>
 800326e:	00010597          	auipc	a1,0x10
 8003272:	81a58593          	addi	a1,a1,-2022 # 8012a88 <__clzdi2+0x45e>
 8003276:	854e                	mv	a0,s3
 8003278:	053080ef          	jal	800baca <strcmp>
 800327c:	e6050b63          	beqz	a0,80028f2 <d_print_comp_inner+0x122>
 8003280:	00010597          	auipc	a1,0x10
 8003284:	c9858593          	addi	a1,a1,-872 # 8012f18 <__clzdi2+0x8ee>
 8003288:	854e                	mv	a0,s3
 800328a:	041080ef          	jal	800baca <strcmp>
 800328e:	fd51                	bnez	a0,800322a <d_print_comp_inner+0xa5a>
 8003290:	02800593          	li	a1,40
 8003294:	8522                	mv	a0,s0
 8003296:	8d0ff0ef          	jal	8002366 <d_append_char>
 800329a:	8626                	mv	a2,s1
 800329c:	45c5                	li	a1,17
 800329e:	8522                	mv	a0,s0
 80032a0:	5f8000ef          	jal	8003898 <d_print_comp>
 80032a4:	aa15                	j	80033d8 <d_print_comp_inner+0xc08>
 80032a6:	6e1c                	ld	a5,24(a2)
 80032a8:	4398                	lw	a4,0(a5)
 80032aa:	03900793          	li	a5,57
 80032ae:	d4f71063          	bne	a4,a5,80027ee <d_print_comp_inner+0x1e>
 80032b2:	6a10                	ld	a2,16(a2)
 80032b4:	6a08                	ld	a0,16(a2)
 80032b6:	e432                	sd	a2,8(sp)
 80032b8:	ce4ff0ef          	jal	800279c <op_is_new_cast.isra.0>
 80032bc:	6622                	ld	a2,8(sp)
 80032be:	c915                	beqz	a0,80032f2 <d_print_comp_inner+0xb22>
 80032c0:	45c5                	li	a1,17
 80032c2:	8522                	mv	a0,s0
 80032c4:	221000ef          	jal	8003ce4 <d_print_expr_op>
 80032c8:	03c00593          	li	a1,60
 80032cc:	8522                	mv	a0,s0
 80032ce:	898ff0ef          	jal	8002366 <d_append_char>
 80032d2:	6c9c                	ld	a5,24(s1)
 80032d4:	45c5                	li	a1,17
 80032d6:	8522                	mv	a0,s0
 80032d8:	6b90                	ld	a2,16(a5)
 80032da:	5be000ef          	jal	8003898 <d_print_comp>
 80032de:	0000f597          	auipc	a1,0xf
 80032e2:	7b258593          	addi	a1,a1,1970 # 8012a90 <__clzdi2+0x466>
 80032e6:	8522                	mv	a0,s0
 80032e8:	906ff0ef          	jal	80023ee <d_append_string>
 80032ec:	6c9c                	ld	a5,24(s1)
 80032ee:	6f90                	ld	a2,24(a5)
 80032f0:	b775                	j	800329c <d_print_comp_inner+0xacc>
 80032f2:	8626                	mv	a2,s1
 80032f4:	45c5                	li	a1,17
 80032f6:	8522                	mv	a0,s0
 80032f8:	25b000ef          	jal	8003d52 <d_maybe_print_fold_expression>
 80032fc:	f0051663          	bnez	a0,8002a08 <d_print_comp_inner+0x238>
 8003300:	8626                	mv	a2,s1
 8003302:	45c5                	li	a1,17
 8003304:	8522                	mv	a0,s0
 8003306:	36b000ef          	jal	8003e70 <d_maybe_print_designated_init>
 800330a:	ee051f63          	bnez	a0,8002a08 <d_print_comp_inner+0x238>
 800330e:	689c                	ld	a5,16(s1)
 8003310:	03200713          	li	a4,50
 8003314:	4394                	lw	a3,0(a5)
 8003316:	02e69363          	bne	a3,a4,800333c <d_print_comp_inner+0xb6c>
 800331a:	6b9c                	ld	a5,16(a5)
 800331c:	4705                	li	a4,1
 800331e:	4b94                	lw	a3,16(a5)
 8003320:	00e69e63          	bne	a3,a4,800333c <d_print_comp_inner+0xb6c>
 8003324:	679c                	ld	a5,8(a5)
 8003326:	0007c703          	lbu	a4,0(a5)
 800332a:	03e00793          	li	a5,62
 800332e:	00f71763          	bne	a4,a5,800333c <d_print_comp_inner+0xb6c>
 8003332:	02800593          	li	a1,40
 8003336:	8522                	mv	a0,s0
 8003338:	82eff0ef          	jal	8002366 <d_append_char>
 800333c:	689c                	ld	a5,16(s1)
 800333e:	0000f597          	auipc	a1,0xf
 8003342:	75a58593          	addi	a1,a1,1882 # 8012a98 <__clzdi2+0x46e>
 8003346:	6b9c                	ld	a5,16(a5)
 8003348:	6388                	ld	a0,0(a5)
 800334a:	780080ef          	jal	800baca <strcmp>
 800334e:	6c9c                	ld	a5,24(s1)
 8003350:	6b90                	ld	a2,16(a5)
 8003352:	ed19                	bnez	a0,8003370 <d_print_comp_inner+0xba0>
 8003354:	4218                	lw	a4,0(a2)
 8003356:	478d                	li	a5,3
 8003358:	00f71c63          	bne	a4,a5,8003370 <d_print_comp_inner+0xba0>
 800335c:	6e1c                	ld	a5,24(a2)
 800335e:	4398                	lw	a4,0(a5)
 8003360:	02900793          	li	a5,41
 8003364:	00f70563          	beq	a4,a5,800336e <d_print_comp_inner+0xb9e>
 8003368:	4785                	li	a5,1
 800336a:	12f42823          	sw	a5,304(s0)
 800336e:	6a10                	ld	a2,16(a2)
 8003370:	45c5                	li	a1,17
 8003372:	8522                	mv	a0,s0
 8003374:	189000ef          	jal	8003cfc <d_print_subexpr>
 8003378:	0104b903          	ld	s2,16(s1)
 800337c:	0000f597          	auipc	a1,0xf
 8003380:	72458593          	addi	a1,a1,1828 # 8012aa0 <__clzdi2+0x476>
 8003384:	01093783          	ld	a5,16(s2)
 8003388:	0007b983          	ld	s3,0(a5)
 800338c:	854e                	mv	a0,s3
 800338e:	73c080ef          	jal	800baca <strcmp>
 8003392:	e531                	bnez	a0,80033de <d_print_comp_inner+0xc0e>
 8003394:	05b00593          	li	a1,91
 8003398:	8522                	mv	a0,s0
 800339a:	fcdfe0ef          	jal	8002366 <d_append_char>
 800339e:	6c9c                	ld	a5,24(s1)
 80033a0:	45c5                	li	a1,17
 80033a2:	8522                	mv	a0,s0
 80033a4:	6f90                	ld	a2,24(a5)
 80033a6:	4f2000ef          	jal	8003898 <d_print_comp>
 80033aa:	05d00593          	li	a1,93
 80033ae:	8522                	mv	a0,s0
 80033b0:	fb7fe0ef          	jal	8002366 <d_append_char>
 80033b4:	689c                	ld	a5,16(s1)
 80033b6:	03200713          	li	a4,50
 80033ba:	4394                	lw	a3,0(a5)
 80033bc:	e4e69663          	bne	a3,a4,8002a08 <d_print_comp_inner+0x238>
 80033c0:	6b9c                	ld	a5,16(a5)
 80033c2:	4705                	li	a4,1
 80033c4:	4b94                	lw	a3,16(a5)
 80033c6:	e4e69163          	bne	a3,a4,8002a08 <d_print_comp_inner+0x238>
 80033ca:	679c                	ld	a5,8(a5)
 80033cc:	0007c703          	lbu	a4,0(a5)
 80033d0:	03e00793          	li	a5,62
 80033d4:	e2f71a63          	bne	a4,a5,8002a08 <d_print_comp_inner+0x238>
 80033d8:	02900593          	li	a1,41
 80033dc:	a2cd                	j	80035be <d_print_comp_inner+0xdee>
 80033de:	0000f597          	auipc	a1,0xf
 80033e2:	6ba58593          	addi	a1,a1,1722 # 8012a98 <__clzdi2+0x46e>
 80033e6:	854e                	mv	a0,s3
 80033e8:	6e2080ef          	jal	800baca <strcmp>
 80033ec:	c511                	beqz	a0,80033f8 <d_print_comp_inner+0xc28>
 80033ee:	864a                	mv	a2,s2
 80033f0:	45c5                	li	a1,17
 80033f2:	8522                	mv	a0,s0
 80033f4:	0f1000ef          	jal	8003ce4 <d_print_expr_op>
 80033f8:	6c9c                	ld	a5,24(s1)
 80033fa:	45c5                	li	a1,17
 80033fc:	8522                	mv	a0,s0
 80033fe:	6f90                	ld	a2,24(a5)
 8003400:	0fd000ef          	jal	8003cfc <d_print_subexpr>
 8003404:	bf45                	j	80033b4 <d_print_comp_inner+0xbe4>
 8003406:	6e1c                	ld	a5,24(a2)
 8003408:	03b00713          	li	a4,59
 800340c:	4394                	lw	a3,0(a5)
 800340e:	bee69063          	bne	a3,a4,80027ee <d_print_comp_inner+0x1e>
 8003412:	6f9c                	ld	a5,24(a5)
 8003414:	4398                	lw	a4,0(a5)
 8003416:	03c00793          	li	a5,60
 800341a:	bcf71a63          	bne	a4,a5,80027ee <d_print_comp_inner+0x1e>
 800341e:	45c5                	li	a1,17
 8003420:	133000ef          	jal	8003d52 <d_maybe_print_fold_expression>
 8003424:	de051263          	bnez	a0,8002a08 <d_print_comp_inner+0x238>
 8003428:	8626                	mv	a2,s1
 800342a:	45c5                	li	a1,17
 800342c:	8522                	mv	a0,s0
 800342e:	243000ef          	jal	8003e70 <d_maybe_print_designated_init>
 8003432:	dc051b63          	bnez	a0,8002a08 <d_print_comp_inner+0x238>
 8003436:	6c9c                	ld	a5,24(s1)
 8003438:	0104b983          	ld	s3,16(s1)
 800343c:	0000f597          	auipc	a1,0xf
 8003440:	66c58593          	addi	a1,a1,1644 # 8012aa8 <__clzdi2+0x47e>
 8003444:	6b90                	ld	a2,16(a5)
 8003446:	6f9c                	ld	a5,24(a5)
 8003448:	e432                	sd	a2,8(sp)
 800344a:	0107b903          	ld	s2,16(a5)
 800344e:	6f84                	ld	s1,24(a5)
 8003450:	0109b783          	ld	a5,16(s3)
 8003454:	6388                	ld	a0,0(a5)
 8003456:	674080ef          	jal	800baca <strcmp>
 800345a:	6622                	ld	a2,8(sp)
 800345c:	e51d                	bnez	a0,800348a <d_print_comp_inner+0xcba>
 800345e:	8522                	mv	a0,s0
 8003460:	45c5                	li	a1,17
 8003462:	09b000ef          	jal	8003cfc <d_print_subexpr>
 8003466:	864e                	mv	a2,s3
 8003468:	8522                	mv	a0,s0
 800346a:	45c5                	li	a1,17
 800346c:	079000ef          	jal	8003ce4 <d_print_expr_op>
 8003470:	8522                	mv	a0,s0
 8003472:	864a                	mv	a2,s2
 8003474:	45c5                	li	a1,17
 8003476:	087000ef          	jal	8003cfc <d_print_subexpr>
 800347a:	0000f597          	auipc	a1,0xf
 800347e:	63658593          	addi	a1,a1,1590 # 8012ab0 <__clzdi2+0x486>
 8003482:	8522                	mv	a0,s0
 8003484:	f6bfe0ef          	jal	80023ee <d_append_string>
 8003488:	b34d                	j	800322a <d_print_comp_inner+0xa5a>
 800348a:	0000f597          	auipc	a1,0xf
 800348e:	62e58593          	addi	a1,a1,1582 # 8012ab8 <__clzdi2+0x48e>
 8003492:	8522                	mv	a0,s0
 8003494:	e432                	sd	a2,8(sp)
 8003496:	f59fe0ef          	jal	80023ee <d_append_string>
 800349a:	6622                	ld	a2,8(sp)
 800349c:	6a1c                	ld	a5,16(a2)
 800349e:	cb91                	beqz	a5,80034b2 <d_print_comp_inner+0xce2>
 80034a0:	45c5                	li	a1,17
 80034a2:	8522                	mv	a0,s0
 80034a4:	059000ef          	jal	8003cfc <d_print_subexpr>
 80034a8:	02000593          	li	a1,32
 80034ac:	8522                	mv	a0,s0
 80034ae:	eb9fe0ef          	jal	8002366 <d_append_char>
 80034b2:	864a                	mv	a2,s2
 80034b4:	45c5                	li	a1,17
 80034b6:	8522                	mv	a0,s0
 80034b8:	3e0000ef          	jal	8003898 <d_print_comp>
 80034bc:	d60497e3          	bnez	s1,800322a <d_print_comp_inner+0xa5a>
 80034c0:	d48ff06f          	j	8002a08 <d_print_comp_inner+0x238>
 80034c4:	6a1c                	ld	a5,16(a2)
 80034c6:	02700713          	li	a4,39
 80034ca:	4394                	lw	a3,0(a5)
 80034cc:	14e69f63          	bne	a3,a4,800362a <d_print_comp_inner+0xe5a>
 80034d0:	6b9c                	ld	a5,16(a5)
 80034d2:	01c7a903          	lw	s2,28(a5)
 80034d6:	4799                	li	a5,6
 80034d8:	0727e063          	bltu	a5,s2,8003538 <d_print_comp_inner+0xd68>
 80034dc:	08091c63          	bnez	s2,8003574 <d_print_comp_inner+0xda4>
 80034e0:	02800593          	li	a1,40
 80034e4:	8522                	mv	a0,s0
 80034e6:	e81fe0ef          	jal	8002366 <d_append_char>
 80034ea:	6890                	ld	a2,16(s1)
 80034ec:	45c5                	li	a1,17
 80034ee:	8522                	mv	a0,s0
 80034f0:	3a8000ef          	jal	8003898 <d_print_comp>
 80034f4:	02900593          	li	a1,41
 80034f8:	8522                	mv	a0,s0
 80034fa:	e6dfe0ef          	jal	8002366 <d_append_char>
 80034fe:	4098                	lw	a4,0(s1)
 8003500:	03e00793          	li	a5,62
 8003504:	00f71763          	bne	a4,a5,8003512 <d_print_comp_inner+0xd42>
 8003508:	02d00593          	li	a1,45
 800350c:	8522                	mv	a0,s0
 800350e:	e59fe0ef          	jal	8002366 <d_append_char>
 8003512:	47a1                	li	a5,8
 8003514:	00f91763          	bne	s2,a5,8003522 <d_print_comp_inner+0xd52>
 8003518:	05b00593          	li	a1,91
 800351c:	8522                	mv	a0,s0
 800351e:	e49fe0ef          	jal	8002366 <d_append_char>
 8003522:	6c90                	ld	a2,24(s1)
 8003524:	45c5                	li	a1,17
 8003526:	8522                	mv	a0,s0
 8003528:	370000ef          	jal	8003898 <d_print_comp>
 800352c:	47a1                	li	a5,8
 800352e:	ccf91d63          	bne	s2,a5,8002a08 <d_print_comp_inner+0x238>
 8003532:	05d00593          	li	a1,93
 8003536:	a061                	j	80035be <d_print_comp_inner+0xdee>
 8003538:	479d                	li	a5,7
 800353a:	faf913e3          	bne	s2,a5,80034e0 <d_print_comp_inner+0xd10>
 800353e:	6e1c                	ld	a5,24(a2)
 8003540:	4398                	lw	a4,0(a5)
 8003542:	ff59                	bnez	a4,80034e0 <d_print_comp_inner+0xd10>
 8003544:	4f94                	lw	a3,24(a5)
 8003546:	4705                	li	a4,1
 8003548:	f8e69ce3          	bne	a3,a4,80034e0 <d_print_comp_inner+0xd10>
 800354c:	03d00713          	li	a4,61
 8003550:	f8e998e3          	bne	s3,a4,80034e0 <d_print_comp_inner+0xd10>
 8003554:	6b9c                	ld	a5,16(a5)
 8003556:	03000713          	li	a4,48
 800355a:	0007c783          	lbu	a5,0(a5)
 800355e:	0ce78163          	beq	a5,a4,8003620 <d_print_comp_inner+0xe50>
 8003562:	03100713          	li	a4,49
 8003566:	f6e79de3          	bne	a5,a4,80034e0 <d_print_comp_inner+0xd10>
 800356a:	0000f597          	auipc	a1,0xf
 800356e:	57658593          	addi	a1,a1,1398 # 8012ae0 <__clzdi2+0x4b6>
 8003572:	a8ad                	j	80035ec <d_print_comp_inner+0xe1c>
 8003574:	6e1c                	ld	a5,24(a2)
 8003576:	439c                	lw	a5,0(a5)
 8003578:	f7a5                	bnez	a5,80034e0 <d_print_comp_inner+0xd10>
 800357a:	03e00793          	li	a5,62
 800357e:	00f99663          	bne	s3,a5,800358a <d_print_comp_inner+0xdba>
 8003582:	02d00593          	li	a1,45
 8003586:	de1fe0ef          	jal	8002366 <d_append_char>
 800358a:	6c90                	ld	a2,24(s1)
 800358c:	45c5                	li	a1,17
 800358e:	8522                	mv	a0,s0
 8003590:	308000ef          	jal	8003898 <d_print_comp>
 8003594:	3979                	addiw	s2,s2,-2
 8003596:	0009071b          	sext.w	a4,s2
 800359a:	4791                	li	a5,4
 800359c:	c6e7e663          	bltu	a5,a4,8002a08 <d_print_comp_inner+0x238>
 80035a0:	02091793          	slli	a5,s2,0x20
 80035a4:	01e7d913          	srli	s2,a5,0x1e
 80035a8:	00010717          	auipc	a4,0x10
 80035ac:	3b470713          	addi	a4,a4,948 # 801395c <_ZTVSt20bad_array_new_length+0x20c>
 80035b0:	993a                	add	s2,s2,a4
 80035b2:	00092783          	lw	a5,0(s2)
 80035b6:	97ba                	add	a5,a5,a4
 80035b8:	8782                	jr	a5
 80035ba:	07500593          	li	a1,117
 80035be:	8522                	mv	a0,s0
 80035c0:	744e                	ld	s0,240(sp)
 80035c2:	70ee                	ld	ra,248(sp)
 80035c4:	74ae                	ld	s1,232(sp)
 80035c6:	790e                	ld	s2,224(sp)
 80035c8:	69ee                	ld	s3,216(sp)
 80035ca:	6a4e                	ld	s4,208(sp)
 80035cc:	6aae                	ld	s5,200(sp)
 80035ce:	6b0e                	ld	s6,192(sp)
 80035d0:	7bea                	ld	s7,184(sp)
 80035d2:	7c4a                	ld	s8,176(sp)
 80035d4:	7caa                	ld	s9,168(sp)
 80035d6:	7d0a                	ld	s10,160(sp)
 80035d8:	6111                	addi	sp,sp,256
 80035da:	d8dfe06f          	j	8002366 <d_append_char>
 80035de:	06c00593          	li	a1,108
